(dp1
S'inchikey'
p2
(dp3
S'sortable'
p4
I9
sS'sql'
p5
S'VARCHAR(512)'
p6
sS'length'
p7
I512
sS'notnull'
p8
I00
sS'unique'
p9
I00
sS'type'
p10
S'string'
p11
ssS'imagepath'
p12
(dp13
g4
I12
sg5
S'TEXT'
p14
sg7
I32768
sg8
I00
sg9
I00
sg10
S'text'
p15
ssS'modified_by'
p16
(dp17
g4
I6
sg5
S'INTEGER REFERENCES auth_user (id) ON DELETE CASCADE'
p18
sg7
I512
sg8
I00
sg9
I00
sg10
S'reference auth_user'
p19
ssS'is_active'
p20
(dp21
g4
I2
sg5
S'CHAR(1)'
p22
sg7
I512
sg8
I00
sg9
I00
sg10
S'boolean'
p23
ssS'created_by'
p24
(dp25
g4
I4
sg5
S'INTEGER REFERENCES auth_user (id) ON DELETE CASCADE'
p26
sg7
I512
sg8
I00
sg9
I00
sg10
g19
ssS'approved'
p27
(dp28
S'length'
p29
I512
sS'unique'
p30
I00
sS'sortable'
p31
I13
sS'sql'
p32
S'CHAR(1)'
p33
sS'notnull'
p34
I00
sS'type'
p35
S'boolean'
p36
ssS'inchi'
p37
(dp38
g4
I8
sg5
S'VARCHAR(512)'
p39
sg7
I512
sg8
I00
sg9
I00
sg10
g11
ssS'created_on'
p40
(dp41
g4
I3
sg5
S'TIMESTAMP'
p42
sg7
I512
sg8
I00
sg9
I00
sg10
S'datetime'
p43
ssS'cansmiles'
p44
(dp45
g4
I11
sg5
S'VARCHAR(512)'
p46
sg7
I512
sg8
I00
sg9
I00
sg10
g11
ssS'isosmiles'
p47
(dp48
g4
I10
sg5
S'VARCHAR(512)'
p49
sg7
I512
sg8
I00
sg9
I00
sg10
g11
ssS'modified_on'
p50
(dp51
g4
I5
sg5
S'TIMESTAMP'
p52
sg7
I512
sg8
I00
sg9
I00
sg10
g43
ssS'addinfo'
p53
(dp54
g4
I13
sg5
S'TEXT'
p55
sg7
I32768
sg8
I00
sg9
I00
sg10
g15
ssS'id'
p56
(dp57
g4
I1
sg5
S'SERIAL PRIMARY KEY'
p58
sg7
I512
sg8
I00
sg9
I00
sg10
S'id'
p59
ss.