(dp1
S'inputsmiles'
p2
(dp3
S'sortable'
p4
I7
sS'sql'
p5
S'VARCHAR(512)'
p6
sS'length'
p7
I512
sS'notnull'
p8
I00
sS'unique'
p9
I00
sS'type'
p10
S'string'
p11
ssS'inchikey'
p12
(dp13
S'length'
p14
I512
sS'unique'
p15
I00
sS'sortable'
p16
I9
sS'sql'
p17
S'VARCHAR(512)'
p18
sS'notnull'
p19
I00
sS'type'
p20
S'string'
p21
ssS'modified_by'
p22
(dp23
S'sortable'
p24
I6
sS'sql'
p25
S'INTEGER REFERENCES auth_user (id) ON DELETE CASCADE  '
p26
sS'length'
p27
I512
sS'notnull'
p28
I00
sS'unique'
p29
I00
sS'type'
p30
S'reference auth_user'
p31
ssS'is_active'
p32
(dp33
g24
I2
sg25
S'CHAR(1)'
p34
sg27
I512
sg28
I00
sg29
I00
sg30
S'boolean'
p35
ssS'state'
p36
(dp37
g24
I10
sg25
S'VARCHAR(512)'
p38
sg27
I512
sg28
I00
sg29
I00
sg30
S'string'
p39
ssS'created_by'
p40
(dp41
g24
I4
sg25
S'INTEGER REFERENCES auth_user (id) ON DELETE CASCADE  '
p42
sg27
I512
sg28
I00
sg29
I00
sg30
g31
ssS'rdkitstructure'
p43
(dp44
g24
I9
sg25
S'mol'
p45
sg27
I512
sg28
I00
sg29
I00
sg30
S'text'
p46
ssS'inchi'
p47
(dp48
g14
I512
sg15
I00
sg16
I8
sg17
S'VARCHAR(512)'
p49
sg19
I00
sg20
g21
ssS'created_on'
p50
(dp51
g24
I3
sg25
S'TIMESTAMP'
p52
sg27
I512
sg28
I00
sg29
I00
sg30
S'datetime'
p53
ssS'cansmiles'
p54
(dp55
g14
I512
sg15
I00
sg16
I11
sg17
S'VARCHAR(512)'
p56
sg19
I00
sg20
g21
ssS'isosmiles'
p57
(dp58
g14
I512
sg15
I00
sg16
I10
sg17
S'VARCHAR(512)'
p59
sg19
I00
sg20
g21
ssS'molstructure'
p60
(dp61
g24
I8
sg25
S'TEXT'
p62
sg27
I32768
sg28
I00
sg29
I00
sg30
g46
ssS'modified_on'
p63
(dp64
g24
I5
sg25
S'TIMESTAMP'
p65
sg27
I512
sg28
I00
sg29
I00
sg30
g53
ssS'addinfo'
p66
(dp67
g24
I11
sg25
S'TEXT'
p68
sg27
I32768
sg28
I00
sg29
I00
sg30
g46
ssS'id'
p69
(dp70
g24
I1
sg25
S'SERIAL PRIMARY KEY'
p71
sg27
I512
sg28
I00
sg29
I00
sg30
S'id'
p72
ss.