(dp1
S'inputsmiles'
p2
(dp3
S'sortable'
p4
I7
sS'sql'
p5
S'VARCHAR(512)'
p6
sS'length'
p7
I512
sS'notnull'
p8
I00
sS'unique'
p9
I00
sS'type'
p10
S'string'
p11
ssS'inchikey'
p12
(dp13
g4
I9
sg5
S'VARCHAR(512)'
p14
sg7
I512
sg8
I00
sg9
I00
sg10
g11
ssS'is_active'
p15
(dp16
g4
I2
sg5
S'CHAR(1)'
p17
sg7
I512
sg8
I00
sg9
I00
sg10
S'boolean'
p18
ssS'modified_on'
p19
(dp20
g4
I5
sg5
S'TIMESTAMP'
p21
sg7
I512
sg8
I00
sg9
I00
sg10
S'datetime'
p22
ssS'created_on'
p23
(dp24
g4
I3
sg5
S'TIMESTAMP'
p25
sg7
I512
sg8
I00
sg9
I00
sg10
g22
ssS'cansmiles'
p26
(dp27
g4
I11
sg5
S'VARCHAR(512)'
p28
sg7
I512
sg8
I00
sg9
I00
sg10
g11
ssS'isosmiles'
p29
(dp30
g4
I10
sg5
S'VARCHAR(512)'
p31
sg7
I512
sg8
I00
sg9
I00
sg10
g11
ssS'inchi'
p32
(dp33
g4
I8
sg5
S'VARCHAR(512)'
p34
sg7
I512
sg8
I00
sg9
I00
sg10
g11
ssS'modified_by'
p35
(dp36
g4
I6
sg5
S'INTEGER REFERENCES auth_user (id) ON DELETE CASCADE  '
p37
sg7
I512
sg8
I00
sg9
I00
sg10
S'reference auth_user'
p38
ssS'addinfo'
p39
(dp40
g4
I15
sg5
S'TEXT'
p41
sg7
I32768
sg8
I00
sg9
I00
sg10
S'text'
p42
ssS'approved'
p43
(dp44
S'sortable'
p45
I17
sS'sql'
p46
S'CHAR(1)'
p47
sS'length'
p48
I512
sS'notnull'
p49
I00
sS'unique'
p50
I00
sS'type'
p51
S'boolean'
p52
ssS'imagepath'
p53
(dp54
S'length'
p55
I32768
sS'unique'
p56
I00
sS'sortable'
p57
I17
sS'sql'
p58
S'TEXT'
p59
sS'notnull'
p60
I00
sS'type'
p61
S'text'
p62
ssS'synonym'
p63
(dp64
S'sortable'
p65
I16
sS'sql'
p66
S'TEXT'
p67
sS'length'
p68
I512
sS'notnull'
p69
I00
sS'unique'
p70
I00
sS'type'
p71
S'list:string'
p72
ssS'id'
p73
(dp74
g4
I1
sg5
S'SERIAL PRIMARY KEY'
p75
sg7
I512
sg8
I00
sg9
I00
sg10
S'id'
p76
ssS'created_by'
p77
(dp78
g4
I4
sg5
S'INTEGER REFERENCES auth_user (id) ON DELETE CASCADE  '
p79
sg7
I512
sg8
I00
sg9
I00
sg10
g38
ssS'rdkitstructure'
p80
(dp81
g4
I13
sg5
S'mol'
p82
sg7
I512
sg8
I00
sg9
I00
sg10
g42
ssS'state'
p83
(dp84
g4
I14
sg5
S'VARCHAR(512)'
p85
sg7
I512
sg8
I00
sg9
I00
sg10
g11
ssS'molstructure'
p86
(dp87
g4
I12
sg5
S'TEXT'
p88
sg7
I32768
sg8
I00
sg9
I00
sg10
g42
ss.