(dp1
S'inputsmiles'
p2
(dp3
S'length'
p4
I512
sS'unique'
p5
I00
sS'sortable'
p6
I7
sS'sql'
p7
S'VARCHAR(512)'
p8
sS'notnull'
p9
I00
sS'type'
p10
S'string'
p11
ssS'inchikey'
p12
(dp13
g4
I512
sg5
I00
sg6
I9
sg7
S'VARCHAR(512)'
p14
sg9
I00
sg10
g11
ssS'modified_by'
p15
(dp16
g4
I512
sg5
I00
sg6
I6
sg7
S'INTEGER REFERENCES auth_user (id) ON DELETE CASCADE  '
p17
sg9
I00
sg10
S'reference auth_user'
p18
ssS'is_active'
p19
(dp20
g4
I512
sg5
I00
sg6
I2
sg7
S'CHAR(1)'
p21
sg9
I00
sg10
S'boolean'
p22
ssS'state'
p23
(dp24
g4
I512
sg5
I00
sg6
I14
sg7
S'VARCHAR(512)'
p25
sg9
I00
sg10
g11
ssS'created_by'
p26
(dp27
g4
I512
sg5
I00
sg6
I4
sg7
S'INTEGER REFERENCES auth_user (id) ON DELETE CASCADE  '
p28
sg9
I00
sg10
g18
ssS'rdkitstructure'
p29
(dp30
g4
I512
sg5
I00
sg6
I13
sg7
S'mol'
p31
sg9
I00
sg10
S'text'
p32
ssS'inchi'
p33
(dp34
g4
I512
sg5
I00
sg6
I8
sg7
S'VARCHAR(512)'
p35
sg9
I00
sg10
g11
ssS'created_on'
p36
(dp37
g4
I512
sg5
I00
sg6
I3
sg7
S'TIMESTAMP'
p38
sg9
I00
sg10
S'datetime'
p39
ssS'cansmiles'
p40
(dp41
g4
I512
sg5
I00
sg6
I11
sg7
S'VARCHAR(512)'
p42
sg9
I00
sg10
g11
ssS'isosmiles'
p43
(dp44
g4
I512
sg5
I00
sg6
I10
sg7
S'VARCHAR(512)'
p45
sg9
I00
sg10
g11
ssS'molstructure'
p46
(dp47
g4
I32768
sg5
I00
sg6
I12
sg7
S'TEXT'
p48
sg9
I00
sg10
g32
ssS'modified_on'
p49
(dp50
g4
I512
sg5
I00
sg6
I5
sg7
S'TIMESTAMP'
p51
sg9
I00
sg10
g39
ssS'addinfo'
p52
(dp53
g4
I32768
sg5
I00
sg6
I15
sg7
S'TEXT'
p54
sg9
I00
sg10
g32
ssS'id'
p55
(dp56
g4
I512
sg5
I00
sg6
I1
sg7
S'SERIAL PRIMARY KEY'
p57
sg9
I00
sg10
g55
ss.