(dp1
S'inchikey'
p2
(dp3
S'sortable'
p4
I8
sS'sql'
p5
S'VARCHAR(512)'
p6
sS'length'
p7
I512
sS'notnull'
p8
I00
sS'unique'
p9
I00
sS'type'
p10
S'string'
p11
ssS'imagepath'
p12
(dp13
g4
I11
sg5
S'TEXT'
p14
sg7
I32768
sg8
I00
sg9
I00
sg10
S'text'
p15
ssS'modified_by'
p16
(dp17
g4
I6
sg5
S'INTEGER REFERENCES auth_user (id) ON DELETE CASCADE  '
p18
sg7
I512
sg8
I00
sg9
I00
sg10
S'reference auth_user'
p19
ssS'is_active'
p20
(dp21
g4
I2
sg5
S'CHAR(1)'
p22
sg7
I512
sg8
I00
sg9
I00
sg10
S'boolean'
p23
ssS'created_by'
p24
(dp25
g4
I4
sg5
S'INTEGER REFERENCES auth_user (id) ON DELETE CASCADE  '
p26
sg7
I512
sg8
I00
sg9
I00
sg10
g19
ssS'id'
p27
(dp28
g4
I1
sg5
S'SERIAL PRIMARY KEY'
p29
sg7
I512
sg8
I00
sg9
I00
sg10
S'id'
p30
ssS'modified_on'
p31
(dp32
g4
I5
sg5
S'TIMESTAMP'
p33
sg7
I512
sg8
I00
sg9
I00
sg10
S'datetime'
p34
ssS'created_on'
p35
(dp36
g4
I3
sg5
S'TIMESTAMP'
p37
sg7
I512
sg8
I00
sg9
I00
sg10
g34
ssS'cansmiles'
p38
(dp39
g4
I10
sg5
S'VARCHAR(512)'
p40
sg7
I512
sg8
I00
sg9
I00
sg10
g11
ssS'isosmiles'
p41
(dp42
g4
I9
sg5
S'VARCHAR(512)'
p43
sg7
I512
sg8
I00
sg9
I00
sg10
g11
ssS'inchi'
p44
(dp45
g4
I7
sg5
S'VARCHAR(512)'
p46
sg7
I512
sg8
I00
sg9
I00
sg10
g11
ssS'synonym'
p47
(dp48
S'length'
p49
I512
sS'unique'
p50
I00
sS'sortable'
p51
I14
sS'sql'
p52
S'TEXT'
p53
sS'notnull'
p54
I00
sS'type'
p55
S'list:string'
p56
ssS'addinfo'
p57
(dp58
g4
I12
sg5
S'TEXT'
p59
sg7
I32768
sg8
I00
sg9
I00
sg10
g15
ssS'approved'
p60
(dp61
g4
I13
sg5
S'CHAR(1)'
p62
sg7
I512
sg8
I00
sg9
I00
sg10
g23
ss.