(dp1
S'output'
p2
S'<class \'psycopg2.ProgrammingError\'> relation "settings" does not exist\nLINE 1: SELECT  settings.id, settings.imagedir FROM settings WHERE (...\n                                                    ^\n'
p3
sS'layer'
p4
S'/home/mjl/Dropbox/FITOMEDICINA/naturar/web2py/applications/naturar/models/db.py'
p5
sS'code'
p6
S'# -*- coding: utf-8 -*-\n\n#########################################################################\n## This scaffolding model makes your app work on Google App Engine too\n## File is released under public domain and you can use without limitations\n#########################################################################\n\n## if SSL/HTTPS is properly configured and you want all HTTP requests to\n## be redirected to HTTPS, uncomment the line below:\n# request.requires_https()\n\n## app configuration made easy. Look inside private/appconfig.ini\nfrom gluon.contrib.appconfig import AppConfig\n\n## to use mol field of RDKIT\nfrom gluon.dal import SQLCustomType\n\n## once in production, remove reload=True to gain full speed\nmyconf = AppConfig(reload=True)\n\n\n\n#~ if not request.env.web2py_runtime_gae:\n    #~ ## if NOT running on Google App Engine use SQLite or other DB\n    #~ db = DAL(myconf.take(\'db.uri\'), pool_size=myconf.take(\'db.pool_size\', cast=int), check_reserved=[\'all\'])\n#~ else:\n    #~ ## connect to Google BigTable (optional \'google:datastore://namespace\')\n    #~ db = DAL(\'google:datastore+ndb\')\n    #~ ## store sessions and tickets there\n    #~ session.connect(request, response, db=db)\n    #~ ## or store session in Memcache, Redis, etc.\n    #~ ## from gluon.contrib.memdb import MEMDB\n    #~ ## from google.appengine.api.memcache import Client\n    #~ ## session.connect(request, response, db = MEMDB(Client()))\n    #~ \n#~ db = DAL("postgres://fito:123456@localhost/naturardb")\n#~ db = DAL("postgres://fito:123456@localhost/naturardb", migrate=True, fake_migrate=True,)\ndb = DAL("postgres://fito:123456@localhost/naturardb", migrate=True)\n\n#~ db = DAL("postgres://fito:123456@localhost/naturardb", lazy_tables=True)\n\n## by default give a view/generic.extension to all actions from localhost\n## none otherwise. a pattern can be \'controller/function.extension\'\nresponse.generic_patterns = [\'*\'] if request.is_local else []\n## choose a style for forms\nresponse.formstyle = myconf.take(\'forms.formstyle\')  # or \'bootstrap3_stacked\' or \'bootstrap2\' or other\nresponse.form_label_separator = myconf.take(\'forms.separator\')\n\n\n## (optional) optimize handling of static files\n# response.optimize_css = \'concat,minify,inline\'\n# response.optimize_js = \'concat,minify,inline\'\n## (optional) static assets folder versioning\n# response.static_version = \'0.0.0\'\n#########################################################################\n## Here is sample code if you need for\n## - email capabilities\n## - authentication (registration, login, logout, ... )\n## - authorization (role based authorization)\n## - services (xml, csv, json, xmlrpc, jsonrpc, amf, rss)\n## - old style crud actions\n## (more options discussed in gluon/tools.py)\n#########################################################################\n\nfrom gluon.tools import Auth, Service, PluginManager\n\nauth = Auth(db)\nservice = Service()\nplugins = PluginManager()\n\n## extra fields (mjl)\nauth.settings.extra_fields[\'auth_user\']= [\n    Field(\'address\', type=\'text\', label=T(\'Address\')),\n    Field(\'phone\', type=\'text\', label=T(\'Phone\')),\n    Field(\'picture\', type=\'upload\', label=T(\'Picture\')),\n    Field(\'rearchdescription\', type=\'text\', label=T(\'Research Description\')),\n    Field(\'additionalinfo\', type=\'text\', label=T(\'Additional Information\')),\n    ]\n\n\n## create all tables needed by auth if not custom tables\nauth.define_tables(username=False, signature=False) \n\n\n## configure email\nmail = auth.settings.mailer\nmail.settings.server = \'logging\' if request.is_local else myconf.take(\'smtp.server\')\nmail.settings.sender = myconf.take(\'smtp.sender\')\nmail.settings.login = myconf.take(\'smtp.login\')\n\n## configure auth policy\nauth.settings.registration_requires_verification = False\nauth.settings.registration_requires_approval = False\nauth.settings.reset_password_requires_verification = True\n\n\n#########################################################################\n## Define your tables below (or better in another model file) for example\n##\n## >>> db.define_table(\'mytable\',Field(\'myfield\',\'string\'))\n##\n## Fields can be \'string\',\'text\',\'password\',\'integer\',\'double\',\'boolean\'\n##       \'date\',\'time\',\'datetime\',\'blob\',\'upload\', \'reference TABLENAME\'\n## There is an implicit \'id integer autoincrement\' field\n## Consult manual for more options, validators, etc.\n##\n## More API examples for controllers:\n##\n## >>> db.mytable.insert(myfield=\'value\')\n## >>> rows=db(db.mytable.myfield==\'value\').select(db.mytable.ALL)\n## >>> for row in rows: print row.id, row.myfield\n#########################################################################\n\n# --------------------------------------------------------------------\n# SETTINGS\n# --------------------------------------------------------------------\n\n\n#~ settings.max_size # get the value\n#~ settings.update_record(summary=new_summary) # set a value \ndb.define_table(\'settings\', \n    Field(\'imagedir\', default="applications/naturar/images_molecule/"),\n    #~ Field(\'max_size\', \'integer\', default=10),\n    #~ Field(\'summary\', \'text\', \'abc\'),\n)\n# create an instance of settings table\nsettings = db(db.settings.id > 0).select().first()\nif not settings:\n    settings = db.settings.insert()\n\n# --------------------------------------------------------------------    \n# LOCATION\n# --------------------------------------------------------------------\n\n\'\'\'data is extrated of Yahoo and Google webservices \'\'\'\ndb.define_table(\'location\',  \n    auth.signature,\n    Field(\'country\', type=\'string\'),\n    Field(\'state\', type=\'string\'),\n    Field(\'city\', type=\'string\'),\n    Field(\'place\', type=\'string\'),\n    Field(\'latitude\', type=\'double\'),\n    Field(\'longitude\', type=\'double\'),\n    Field(\'yahoowoeid\', type=\'integer\'),\n    Field(\'googleplaceid\', type=\'string\'),\n    Field(\'placetypename\', type=\'string\'),\n    )\n\n\n# --------------------------------------------------------------------\n# DOCS\n# --------------------------------------------------------------------\n\n\'\'\'\nStore bibliographic information, this can be obtained from Crossref API\n\'\'\'\ndb.define_table(\'doc\', \n    auth.signature,\n    Field(\'journal\', type=\'string\'),\n    Field(\'year\', type=\'datetime\', requires = IS_DATE(format=(\'%Y\'))),\n    Field(\'volume\', type=\'integer\'),\n    Field(\'issue\', type=\'integer\'),\n    Field(\'firstpage\', type=\'integer\'),\n    Field(\'lastpage\', type=\'integer\'),\n    Field(\'doi\', type=\'string\'),\n    Field(\'pubmed_id\'),\n    Field(\'title\', type=\'text\'),\n    Field(\'doctype\', type=\'string\'),\n    Field(\'authors\'),\n    Field(\'abstract\', type=\'text\'),\n    Field(\'url\', type=\'text\'),\n    )\n\n\n# --------------------------------------------------------------------\n# COMPOUND INFORMATION\n# --------------------------------------------------------------------\n\n\'\'\'\nStore compound information\n\'\'\'\ndb.define_table(\'compound\', \n    auth.signature,\n    #~ Field(\'compoundname\', requires=IS_NOT_EMPTY()),\n    Field(\'iupacname\', type=\'string\'),\n    Field(\'inchi\', type=\'string\'),\n    Field(\'inchikey\', type=\'string\'),\n    Field(\'isosmiles\', type=\'string\'),\n    Field(\'cansmiles\', type=\'string\'),\n    Field(\'imagepath\', type=\'text\', readable=False, writable=False),\n    Field(\'addinfo\', type=\'text\'),\n    #~ format=\'c%(id)i-%(name)s\',\n    )\n    \n\'\'\'\nMany to many table relationship: Docs and Compounds\n\'\'\'\ndb.define_table(\'compound_doc\',\n    auth.signature,\n    Field(\'compound_id\', \'reference compound\'),\n    Field(\'doc_id\', \'reference doc\'),\n    )\n\n\'\'\'\nStructures (conformers) of compounds\n\'\'\'\n#~ db.executesql(\'CREATE TABLE IF NOT EXISTS structure ( \\\n    #~ id integer NOT null, \\\n    #~ molstructure MOL, \\\n    #~ compound_id int references compound(id), \\\n    #~ CONSTRAINT structure_pk PRIMARY KEY (id));\')\nmol = SQLCustomType(\n    type =\'text\',\n    native =\'mol\',\n    )\n\ndb.define_table(\'structure\',\n    auth.signature,\n    Field(\'molstructure\', type=mol),\n    Field(\'compound_id\', \'reference compound\'),\n    )\n\n\'\'\'\nStore descriptors of 3D structures\n\'\'\'\ndb.define_table(\'structuredescriptor\',\n    auth.signature,\n    Field(\'methodname\', type=\'string\')\n    )\n    \n\'\'\'\nMany to many table relationship: StructureDescriptors and Structures\n\'\'\'\ndb.define_table(\'structure_descriptor\',\n    auth.signature,\n    Field(\'structuredescriptor_id\', \'reference structuredescriptor\'),\n    Field(\'structure_id\', \'reference structure\'),\n    Field(\'descriptorvalue\'),\n    )    \n\n\'\'\'\nTypes of compound synomys\n\'\'\'\ndb.define_table(\'synonymtype\',\n    auth.signature,\n    Field(\'synonymtype\', type=\'string\'),\n    ) \n\n\'\'\'\nStore synonyms of compound names\n\'\'\'\ndb.define_table(\'synonym\',\n    auth.signature,\n    Field(\'synonymtype_id\', \'reference synonymtype\'),\n    Field(\'synonymname\', type=\'string\'),\n    Field(\'compound_id\', \'reference compound\'),\n    )    \n\n\'\'\'\nList of compound classification, active.\n\'\'\'\ndb.define_table(\'classification\',\n    auth.signature,\n    Field(\'classificationname\', type=\'string\'),\n    Field(\'classificationdescription\', type=\'text\'),\n    )\n\n\'\'\'\nMany to many table relationship: Classification and Compounds\n\'\'\'\ndb.define_table(\'compound_classification\',\n    auth.signature,\n    Field(\'compound_id\', \'reference compound\'),\n    Field(\'classification_id\', \'reference classification\'),\n    )\n    \n\'\'\'\nList of compound class,  \nfuctional groups, ej aminas, sulfonamidas, etc.\n\'\'\'\ndb.define_table(\'chemicalclass\',\n    auth.signature,\n    Field(\'classname_en\', type=\'string\'),\n    Field(\'classname_es\', type=\'string\'),\n    Field(\'classdescription\', type=\'text\'),\n    )\n\n\'\'\'\nMany to many table relationship: Chemicalclass and Compounds,\n\'\'\'\ndb.define_table(\'compound_chemicalclass\',\n    auth.signature,\n    Field(\'compound_id\', \'reference compound\'),\n    Field(\'chemicalclass_id\', \'reference chemicalclass\'),\n    )\n    \n\'\'\'\nDefine isomer relationships between two compounds\n\'\'\'\ndb.define_table(\'isomer\',\n    auth.signature,\n    Field(\'compound1_id\', \'reference compound\'),\n    Field(\'compound2_id\', \'reference compound\'),\n    )\n\n\n#~ # define autocomplete function for extracto\n#~ db.compound_record.extract.widget = SQLFORM.widgets.autocomplete(\n     #~ request, db.extract_record.extract_name, id_field=db.extract_record.id, limitby=(0,10), min_length=2)\n\n\'\'\'\nList of calculated properties\n\'\'\'\ndb.define_table(\'compoundproperty\', \n    auth.signature,\n    Field(\'compound_id\', \'reference compound\'),\n    Field(\'molecularweight\', type=\'decimal(10,4)\'),\n    Field(\'molecularformula\', type=\'string\'),\n    Field(\'molecularvolume\', type=\'decimal(10,3)\', label="volumen"),\n    Field(\'logp\', type=\'decimal(10,4)\'),\n    Field(\'tpsa\', type=\'decimal(10,4)\'),\n    Field(\'hbd\', type=\'integer\'),\n    Field(\'hba\', type=\'integer\'),\n    Field(\'numrotatable\', type=\'integer\'),\n    Field(\'numring\', type=\'integer\'),\n    Field(\'numn\', type=\'integer\'),\n    Field(\'numo\', type=\'integer\'),\n    Field(\'nums\', type=\'integer\'),\n    Field(\'numro5violation\', type=\'integer\'),\n    )\n\n\'\'\'\nList of extra properties\n\'\'\'\ndb.define_table(\'extraproperty\', \n    auth.signature,\n    Field(\'extrapropertyname_en\', type=\'string\'),\n    Field(\'extrapropertyname_es\', type=\'string\'),\n    )\n\n\'\'\'\nMany to many table relationship: Extraproperty and Compounds,\n\'\'\'\ndb.define_table(\'compound_extraproperty\',\n    auth.signature,\n    Field(\'compound_id\', \'reference compound\'),\n    Field(\'extraproperty_id\', \'reference extraproperty\'),\n    Field(\'extrapropertyvalue\')\n    )\n\n\n# --------------------------------------------------------------------\n# SOURCE INFORMATION\n# --------------------------------------------------------------------\n\n\'\'\' \nTable where is stored source information obtained frod databases like \nCatalogue of Life using webservices.\ndbname is the name of the database whereis is obtained the data and \nidfromdb is the original ID code .\n\'\'\'\ndb.define_table(\'source\', \n    auth.signature,\n    Field(\'scientificname\', type=\'string\'),\n    Field(\'sourcekingdom\', type=\'string\'),\n    Field(\'sourcefamily\', type=\'string\'),\n    Field(\'sourcegenus\', type=\'string\'),\n    Field(\'sourcespecies\', type=\'string\'),\n    Field(\'variety\', type=\'string\'),\n    Field(\'ethnomedicinalinfo\', type=\'text\'),\n    Field(\'dbname\', type=\'string\'),\n    Field(\'idfromdb\', type=\'string\'),\n    )\n\n\'\'\'\nImages of sources\n\'\'\'\ndb.define_table(\'sourceimage\',\n    auth.signature,\n    Field(\'source_id\', \'reference source\'),\n    Field(\'sourceimage\', type=\'string\'),\n    Field(\'credit\', type=\'string\'),\n    )\n\n\'\'\'\nNative names of a source\n\'\'\'\ndb.define_table(\'nativename\',\n    auth.signature,\n    Field(\'source_id\', \'reference source\'),\n    Field(\'nativename\', type=\'string\'),\n    Field(\'culture\', type=\'string\'),\n    )\n    \n\'\'\'\nCommon names of a source\n\'\'\'\ndb.define_table(\'commonname\',\n    auth.signature,\n    Field(\'source_id\', \'reference source\'),\n    Field(\'commonname\', type=\'string\'),\n    )\n    \n\'\'\'\nMedicinal Uses\n\'\'\'\ndb.define_table(\'medicinal\',\n    auth.signature,\n    Field(\'medicinaluse_en\', type=\'string\'),\n    Field(\'medicinaluse_es\', type=\'string\'),\n    )\n\n\'\'\'\nMany to many table relationship: Medicinal Uses and Sources\n\'\'\'\ndb.define_table(\'source_medicinal\',\n    auth.signature,\n    Field(\'source_id\', \'reference source\'),\n    Field(\'medicinal_id\', \'reference medicinal\'),\n    )\n    \n\'\'\'\nFood Uses\n\'\'\'\ndb.define_table(\'food\',\n    auth.signature,\n    Field(\'fooduse_en\', type=\'string\'),\n    Field(\'fooduse_es\', type=\'string\'),\n    )\n\n\'\'\'\nMany to many table relationship: Food Uses and Sources\n\'\'\'\ndb.define_table(\'source_food\',\n    auth.signature,\n    Field(\'source_id\', \'reference source\'),\n    Field(\'food_id\', \'reference food\'),\n    )\n\n\n\'\'\'\nOther Uses\n\'\'\'\ndb.define_table(\'otheruse\',\n    auth.signature,\n    Field(\'otherusename\', type=\'string\'),\n    )\n\n\'\'\'\nMany to many table relationship: Other Uses and Sources\n\'\'\'\ndb.define_table(\'source_otheruse\',\n    auth.signature,\n    Field(\'source_id\', \'reference source\'),\n    Field(\'otheruse_id\', \'reference otheruse\'),\n    )\n\n\'\'\'\nMany to many table relationship: Location and Sources\n\'\'\'\ndb.define_table(\'source_location\',\n    auth.signature,\n    Field(\'source_id\', \'reference source\'),\n    Field(\'location_id\', \'reference location\'),\n    )\n\n\'\'\'\nMany to many table relationship: Docs and Sources\n\'\'\'\ndb.define_table(\'source_doc\',\n    auth.signature,\n    Field(\'source_id\', \'reference source\'),\n    Field(\'doc_id\', \'reference doc\'),\n    )\n     \n     \n# --------------------------------------------------------------------\n# USERS (cont.)\n# --------------------------------------------------------------------\n\n\'\'\'\nStore internal messages between members\n\'\'\'\ndb.define_table(\'message\',\n    auth.signature,\n    Field(\'messagetitle\', type=\'string\'),\n    Field(\'messagebody\', type=\'text\'),\n    Field(\'usersent_id\', \'reference auth_user\'),\n    Field(\'userreceiver_id\', \'reference auth_user\'),\n    Field(\'date\', type=\'datetime\'),\n    )\n\n\'\'\'\nResearch groups\n\'\'\'\ndb.define_table(\'researchgroup\',\n    auth.signature,\n    Field(\'reseachname\', type=\'string\'),\n    Field(\'institution\', type=\'string\'),\n    Field(\'webpage\', type=\'string\'),\n    Field(\'email\', type=\'string\'),\n    Field(\'telephone\', type=\'string\'),\n    Field(\'address\', type=\'string\'),\n    Field(\'location_id\', \'reference location\'),\n    Field(\'logo\', type=\'upload\'),\n    )\n    \n\'\'\'\nMany to many table relationship: Research Groups and Users\n\'\'\'\ndb.define_table(\'user_reseach\',\n    auth.signature,\n    Field(\'user_id\', \'reference auth_user\'),\n    Field(\'researchgroup_id\', \'reference researchgroup\'),\n    )\n    \n\'\'\'\nMany to many table relationship: Docs and Users\n\'\'\'\ndb.define_table(\'user_doc\',\n    auth.signature,\n    Field(\'user_id\', \'reference auth_user\'),\n    Field(\'doc_id\', \'reference doc\'),\n    )   \n\n\'\'\'\nMany to many table relationship: Compounds and Users to store in profile \n\'\'\'\ndb.define_table(\'bookmark\',\n    auth.signature,\n    Field(\'user_id\', \'reference auth_user\'),\n    Field(\'compound_id\', \'reference compound\'),\n    )   \n\n\n# --------------------------------------------------------------------\n# EXTRACTS\n# --------------------------------------------------------------------\n\n\'\'\'\nList of part from where you can obtain extract\n\'\'\'\ndb.define_table(\'partused\',\n    auth.signature,\n    Field(\'partname_en\'),\n    Field(\'partname_es\'),\n    )\n\n\'\'\'\nMain table of extract\n\'\'\'\ndb.define_table(\'extract\', \n    auth.signature,\n    Field(\'source_id\', \'reference source\'),\n    Field(\'location_id\', \'reference location\'),\n    Field(\'partused_id\', \'reference partused\'),\n    Field(\'extractpreparation\', type=\'text\'),\n    format=\'%(extract_name)s\',\n    )\n\n\'\'\'\nMany to many table relationship: Docs and Extract\n\'\'\'\ndb.define_table(\'extract_doc\',\n    auth.signature,\n    Field(\'extract_id\', \'reference extract\'),\n    Field(\'doc_id\', \'reference doc\'),\n    )\n\n\'\'\'\nMany to many table relationship: Compound and Extract\n\'\'\'\ndb.define_table(\'compound_extract\',\n    auth.signature,\n    Field(\'extract_id\', \'reference extract\'),\n    Field(\'compound_id\', \'reference compound\'),\n    Field(\'compoundamount\', type=\'double\'),\n    )\n\n\n# --------------------------------------------------------------------\n# ASSAYS\n# --------------------------------------------------------------------\n\n\'\'\'\nList of assays\n\'\'\'\ndb.define_table(\'assay\',\n    auth.signature,\n    Field(\'assayname\', type=\'string\'),\n    Field(\'assaydescription\', type=\'text\'),\n    Field(\'pubchecbioassay_id\'),\n    )\n\n\'\'\'\nMany to many table relationship: Assay and Extract\n\'\'\'\ndb.define_table(\'extract_assay\',\n    auth.signature,\n    Field(\'extract_id\', \'reference extract\'),\n    Field(\'compound_id\', \'reference compound\'),\n    Field(\'compoundamount\', type=\'double\'),    \n    Field(\'inhibition\', type=\'double\'),\n    Field(\'activity\', type=\'double\'),\n    Field(\'cytotoxicity\', type=\'double\'),\n    Field(\'sideEffects\', type=\'text\'),\n    )\n\n\'\'\'\nMany to many table relationship: Docs and Assay\n\'\'\'\ndb.define_table(\'assay_doc\',\n    auth.signature,\n    Field(\'assay_id\', \'reference assay\'),\n    Field(\'doc_id\', \'reference doc\'),\n    )\n\n\'\'\'\nList of assay targets\n\'\'\'\ndb.define_table(\'target\',\n    auth.signature,\n    Field(\'targetname\', type=\'string\'),\n    )\n\n\'\'\'\nMany to many table relationship: Target and Assay\n\'\'\'\ndb.define_table(\'assay_target\',\n    auth.signature,\n    Field(\'assay_id\', \'reference assay\'),\n    Field(\'target_id\', \'reference target\'),\n    )\n\n\n\n## after defining tables, uncomment below to enable auditing\n#~ auth.enable_record_versioning(db)\n\n\n\n'
p7
sS'snapshot'
p8
(dp9
S'exception'
p10
(dp11
S'__module__'
p12
S"'psycopg2'"
p13
sS'__getslice__'
p14
S"<method-wrapper '__getslice__' of ProgrammingError object>"
p15
sS'__str__'
p16
S"<method-wrapper '__str__' of ProgrammingError object>"
p17
sS'__reduce__'
p18
S'<built-in method __reduce__ of ProgrammingError object>'
p19
sS'__dict__'
p20
S'{\'cursor\': <cursor object at 0x7f09fc08f148; closed: 0>, \'pgcode\': \'42P01\', \'pgerror\': \'ERROR:  relation "settings" does not exist\\nLINE ...                                               ^\\n\'}'
p21
sS'__sizeof__'
p22
S'<built-in method __sizeof__ of ProgrammingError object>'
p23
sS'__weakref__'
p24
S'None'
p25
sS'__init__'
p26
S"<method-wrapper '__init__' of ProgrammingError object>"
p27
sS'__setattr__'
p28
S"<method-wrapper '__setattr__' of ProgrammingError object>"
p29
sS'__reduce_ex__'
p30
S'<built-in method __reduce_ex__ of ProgrammingError object>'
p31
sS'__new__'
p32
S'<built-in method __new__ of type object>'
p33
sS'__format__'
p34
S'<built-in method __format__ of ProgrammingError object>'
p35
sS'__class__'
p36
S"<class 'psycopg2.ProgrammingError'>"
p37
sS'pgerror'
p38
S'\'ERROR:  relation "settings" does not exist\\nLINE ...                                               ^\\n\''
p39
sS'__doc__'
p40
S"'Error related to database programming (SQL error, table not found etc).'"
p41
sS'__getitem__'
p42
S"<method-wrapper '__getitem__' of ProgrammingError object>"
p43
sS'__setstate__'
p44
S'<built-in method __setstate__ of ProgrammingError object>'
p45
sS'__getattribute__'
p46
S"<method-wrapper '__getattribute__' of ProgrammingError object>"
p47
sS'args'
p48
S'(\'relation "settings" does not exist\\nLINE 1: SELEC...                                               ^\\n\',)'
p49
sS'__subclasshook__'
p50
S'<built-in method __subclasshook__ of type object>'
p51
sS'pgcode'
p52
S"'42P01'"
p53
sS'__unicode__'
p54
S'<built-in method __unicode__ of ProgrammingError object>'
p55
sS'cursor'
p56
S'<cursor object at 0x7f09fc08f148; closed: 0>'
p57
sS'__delattr__'
p58
S"<method-wrapper '__delattr__' of ProgrammingError object>"
p59
sS'__repr__'
p60
S"<method-wrapper '__repr__' of ProgrammingError object>"
p61
sS'__hash__'
p62
S"<method-wrapper '__hash__' of ProgrammingError object>"
p63
ssS'evalue'
p64
S'relation "settings" does not exist\nLINE 1: SELECT  settings.id, settings.imagedir FROM settings WHERE (...\n                                                    ^\n'
p65
sS'request'
p66
cgluon.html
XML_unpickle
p67
(S's\xedS\x00\x00<div><table><tr><td style="font-weight:bold;vertical-align:top;">ajax</td><td style="vertical-align:top;">:</td><td><div>False</div></td></tr><tr><td style="font-weight:bold;vertical-align:top;">application</td><td style="vertical-align:top;">:</td><td><div>naturar</div></td></tr><tr><td style="font-weight:bold;vertical-align:top;">args</td><td style="vertical-align:top;">:</td><td><div><table></table></div></td></tr><tr><td style="font-weight:bold;vertical-align:top;">cid</td><td style="vertical-align:top;">:</td><td><div>None</div></td></tr><tr><td style="font-weight:bold;vertical-align:top;">client</td><td style="vertical-align:top;">:</td><td><div>127.0.0.1</div></td></tr><tr><td style="font-weight:bold;vertical-align:top;">controller</td><td style="vertical-align:top;">:</td><td><div>default</div></td></tr><tr><td style="font-weight:bold;vertical-align:top;">cookies</td><td style="vertical-align:top;">:</td><td><div><table><tr><td style="font-weight:bold;vertical-align:top;">session_id_admin</td><td style="vertical-align:top;">:</td><td><div>127.0.0.1-d824c53b-f38f-4d2d-b79b-fac7e677b4e9<table><tr><td style="font-weight:bold;vertical-align:top;">comment</td><td style="vertical-align:top;">:</td><td><div></div></td></tr><tr><td style="font-weight:bold;vertical-align:top;">domain</td><td style="vertical-align:top;">:</td><td><div></div></td></tr><tr><td style="font-weight:bold;vertical-align:top;">expires</td><td style="vertical-align:top;">:</td><td><div></div></td></tr><tr><td style="font-weight:bold;vertical-align:top;">httponly</td><td style="vertical-align:top;">:</td><td><div></div></td></tr><tr><td style="font-weight:bold;vertical-align:top;">max-age</td><td style="vertical-align:top;">:</td><td><div></div></td></tr><tr><td style="font-weight:bold;vertical-align:top;">path</td><td style="vertical-align:top;">:</td><td><div></div></td></tr><tr><td style="font-weight:bold;vertical-align:top;">secure</td><td style="vertical-align:top;">:</td><td><div></div></td></tr><tr><td style="font-weight:bold;vertical-align:top;">version</td><td style="vertical-align:top;">:</td><td><div></div></td></tr></table></div></td></tr><tr><td style="font-weight:bold;vertical-align:top;">session_id_welcome</td><td style="vertical-align:top;">:</td><td><div>127.0.0.1-fcff06f3-afd6-47a3-812c-7a2d38fc8e15<table><tr><td style="font-weight:bold;vertical-align:top;">comment</td><td style="vertical-align:top;">:</td><td><div></div></td></tr><tr><td style="font-weight:bold;vertical-align:top;">domain</td><td style="vertical-align:top;">:</td><td><div></div></td></tr><tr><td style="font-weight:bold;vertical-align:top;">expires</td><td style="vertical-align:top;">:</td><td><div></div></td></tr><tr><td style="font-weight:bold;vertical-align:top;">httponly</td><td style="vertical-align:top;">:</td><td><div></div></td></tr><tr><td style="font-weight:bold;vertical-align:top;">max-age</td><td style="vertical-align:top;">:</td><td><div></div></td></tr><tr><td style="font-weight:bold;vertical-align:top;">path</td><td style="vertical-align:top;">:</td><td><div></div></td></tr><tr><td style="font-weight:bold;vertical-align:top;">secure</td><td style="vertical-align:top;">:</td><td><div></div></td></tr><tr><td style="font-weight:bold;vertical-align:top;">version</td><td style="vertical-align:top;">:</td><td><div></div></td></tr></table></div></td></tr></table></div></td></tr><tr><td style="font-weight:bold;vertical-align:top;">env</td><td style="vertical-align:top;">:</td><td><div><table><tr><td style="font-weight:bold;vertical-align:top;">HTTP_ACCEPT</td><td style="vertical-align:top;">:</td><td><div>text/html,application/xhtml+xml,application/xml;q=0.9,*/*;q=0.8</div></td></tr><tr><td style="font-weight:bold;vertical-align:top;">HTTP_ACCEPT_ENCODING</td><td style="vertical-align:top;">:</td><td><div>gzip, deflate</div></td></tr><tr><td style="font-weight:bold;vertical-align:top;">HTTP_ACCEPT_LANGUAGE</td><td style="vertical-align:top;">:</td><td><div>en-US,en;q=0.5</div></td></tr><tr><td style="font-weight:bold;vertical-align:top;">HTTP_CONNECTION</td><td style="vertical-align:top;">:</td><td><div>keep-alive</div></td></tr><tr><td style="font-weight:bold;vertical-align:top;">HTTP_COOKIE</td><td style="vertical-align:top;">:</td><td><div>session_id_welcome=127.0.0.1-fcff06f3-afd6-47a3-812c-7a2d38fc8e15; session_id_admin=127.0.0.1-d824c53b-f38f-4d2d-b79b-fac7e677b4e9</div></td></tr><tr><td style="font-weight:bold;vertical-align:top;">HTTP_HOST</td><td style="vertical-align:top;">:</td><td><div>127.0.0.1:8000</div></td></tr><tr><td style="font-weight:bold;vertical-align:top;">HTTP_USER_AGENT</td><td style="vertical-align:top;">:</td><td><div>Mozilla/5.0 (X11; Ubuntu; Linux x86_64; rv:45.0) Gecko/20100101 Firefox/45.0</div></td></tr><tr><td style="font-weight:bold;vertical-align:top;">PATH_INFO</td><td style="vertical-align:top;">:</td><td><div>/naturar</div></td></tr><tr><td style="font-weight:bold;vertical-align:top;">QUERY_STRING</td><td style="vertical-align:top;">:</td><td><div></div></td></tr><tr><td style="font-weight:bold;vertical-align:top;">REMOTE_ADDR</td><td style="vertical-align:top;">:</td><td><div>127.0.0.1</div></td></tr><tr><td style="font-weight:bold;vertical-align:top;">REMOTE_PORT</td><td style="vertical-align:top;">:</td><td><div>34254</div></td></tr><tr><td style="font-weight:bold;vertical-align:top;">REQUEST_METHOD</td><td style="vertical-align:top;">:</td><td><div>GET</div></td></tr><tr><td style="font-weight:bold;vertical-align:top;">SCRIPT_NAME</td><td style="vertical-align:top;">:</td><td><div></div></td></tr><tr><td style="font-weight:bold;vertical-align:top;">SERVER_NAME</td><td style="vertical-align:top;">:</td><td><div>Atomus</div></td></tr><tr><td style="font-weight:bold;vertical-align:top;">SERVER_PORT</td><td style="vertical-align:top;">:</td><td><div>8000</div></td></tr><tr><td style="font-weight:bold;vertical-align:top;">SERVER_PROTOCOL</td><td style="vertical-align:top;">:</td><td><div>HTTP/1.1</div></td></tr><tr><td style="font-weight:bold;vertical-align:top;">SERVER_SOFTWARE</td><td style="vertical-align:top;">:</td><td><div>Rocket 1.2.6</div></td></tr><tr><td style="font-weight:bold;vertical-align:top;">app_folders</td><td style="vertical-align:top;">:</td><td><div>set([&#x27;/home/mjl/Dropbox/FITOMEDICINA/naturar/web2py/applications/welcome/&#x27;, &#x27;/home/mjl/Dropbox/FITOMEDICINA/naturar/web2py/applications/naturar/&#x27;])</div></td></tr><tr><td style="font-weight:bold;vertical-align:top;">applications_parent</td><td style="vertical-align:top;">:</td><td><div>/home/mjl/Dropbox/FITOMEDICINA/naturar/web2py</div></td></tr><tr><td style="font-weight:bold;vertical-align:top;">cmd_args</td><td style="vertical-align:top;">:</td><td><div><table></table></div></td></tr><tr><td style="font-weight:bold;vertical-align:top;">cmd_options</td><td style="vertical-align:top;">:</td><td><div>&lt;Values at 0x7f0a00362320: {&#x27;verbose&#x27;: False, &#x27;ip&#x27;: &#x27;127.0.0.1&#x27;, &#x27;debuglevel&#x27;: 30, &#x27;with_scheduler&#x27;: False, &#x27;ips&#x27;: [&#x27;127.0.1.1&#x27;], &#x27;shutdown_timeout&#x27;: 5, &#x27;taskbar&#x27;: False, &#x27;with_coverage&#x27;: False, &#x27;scheduler_groups&#x27;: None, &#x27;port&#x27;: 8000, &#x27;maxthreads&#x27;: None, &#x27;softcron&#x27;: False, &#x27;server_name&#x27;: &#x27;Atomus&#x27;, &#x27;bpython&#x27;: False, &#x27;nogui&#x27;: False, &#x27;pid_filename&#x27;: &#x27;httpserver.pid&#x27;, &#x27;print_errors&#x27;: False, &#x27;extcron&#x27;: False, &#x27;runcron&#x27;: False, &#x27;run_system_tests&#x27;: False, &#x27;test&#x27;: None, &#x27;folder&#x27;: &#x27;/home/mjl/Dropbox/FITOMEDICINA/naturar/web2py&#x27;, &#x27;config&#x27;: &#x27;&#x27;, &#x27;minthreads&#x27;: None, &#x27;shell&#x27;: None, &#x27;run&#x27;: &#x27;&#x27;, &#x27;log_filename&#x27;: &#x27;httpserver.log&#x27;, &#x27;profiler_dir&#x27;: None, &#x27;args&#x27;: [&#x27;&#x27;], &#x27;socket_timeout&#x27;: 5, &#x27;ssl_ca_certificate&#x27;: None, &#x27;scheduler&#x27;: None, &#x27;interfaces&#x27;: None, &#x27;ssl_private_key&#x27;: &#x27;&#x27;, &#x27;gae&#x27;: None, &#x27;password&#x27;: &#x27;&lt;ask&gt;&#x27;, &#x27;request_queue_size&#x27;: 5, &#x27;ssl_certificate&#x27;: &#x27;&#x27;, &#x27;cronjob&#x27;: False, &#x27;numthreads&#x27;: None, &#x27;quiet&#x27;: False, &#x27;import_models&#x27;: False, &#x27;timeout&#x27;: 10, &#x27;plain&#x27;: False, &#x27;nobanner&#x27;: False}&gt;</div></td></tr><tr><td style="font-weight:bold;vertical-align:top;">db_sessions</td><td style="vertical-align:top;">:</td><td><div>set([])</div></td></tr><tr><td style="font-weight:bold;vertical-align:top;">debugging</td><td style="vertical-align:top;">:</td><td><div>False</div></td></tr><tr><td style="font-weight:bold;vertical-align:top;">gluon_parent</td><td style="vertical-align:top;">:</td><td><div>/home/mjl/Dropbox/FITOMEDICINA/naturar/web2py</div></td></tr><tr><td style="font-weight:bold;vertical-align:top;">http_accept</td><td style="vertical-align:top;">:</td><td><div>text/html,application/xhtml+xml,application/xml;q=0.9,*/*;q=0.8</div></td></tr><tr><td style="font-weight:bold;vertical-align:top;">http_accept_encoding</td><td style="vertical-align:top;">:</td><td><div>gzip, deflate</div></td></tr><tr><td style="font-weight:bold;vertical-align:top;">http_accept_language</td><td style="vertical-align:top;">:</td><td><div>en-US,en;q=0.5</div></td></tr><tr><td style="font-weight:bold;vertical-align:top;">http_connection</td><td style="vertical-align:top;">:</td><td><div>keep-alive</div></td></tr><tr><td style="font-weight:bold;vertical-align:top;">http_cookie</td><td style="vertical-align:top;">:</td><td><div>session_id_welcome=127.0.0.1-fcff06f3-afd6-47a3-812c-7a2d38fc8e15; session_id_admin=127.0.0.1-d824c53b-f38f-4d2d-b79b-fac7e677b4e9</div></td></tr><tr><td style="font-weight:bold;vertical-align:top;">http_host</td><td style="vertical-align:top;">:</td><td><div>127.0.0.1:8000</div></td></tr><tr><td style="font-weight:bold;vertical-align:top;">http_user_agent</td><td style="vertical-align:top;">:</td><td><div>Mozilla/5.0 (X11; Ubuntu; Linux x86_64; rv:45.0) Gecko/20100101 Firefox/45.0</div></td></tr><tr><td style="font-weight:bold;vertical-align:top;">is_jython</td><td style="vertical-align:top;">:</td><td><div>False</div></td></tr><tr><td style="font-weight:bold;vertical-align:top;">is_pypy</td><td style="vertical-align:top;">:</td><td><div>False</div></td></tr><tr><td style="font-weight:bold;vertical-align:top;">is_source</td><td style="vertical-align:top;">:</td><td><div>True</div></td></tr><tr><td style="font-weight:bold;vertical-align:top;">local_hosts</td><td style="vertical-align:top;">:</td><td><div><table><tr><td><div>Atomus</div></td></tr><tr><td><div>::1</div></td></tr><tr><td><div>127.0.1.1</div></td></tr><tr><td><div>::ffff:127.0.0.1</div></td></tr><tr><td><div>127.0.0.1</div></td></tr></table></div></td></tr><tr><td style="font-weight:bold;vertical-align:top;">path_info</td><td style="vertical-align:top;">:</td><td><div>/naturar</div></td></tr><tr><td style="font-weight:bold;vertical-align:top;">query_string</td><td style="vertical-align:top;">:</td><td><div></div></td></tr><tr><td style="font-weight:bold;vertical-align:top;">remote_addr</td><td style="vertical-align:top;">:</td><td><div>127.0.0.1</div></td></tr><tr><td style="font-weight:bold;vertical-align:top;">remote_port</td><td style="vertical-align:top;">:</td><td><div>34254</div></td></tr><tr><td style="font-weight:bold;vertical-align:top;">request_method</td><td style="vertical-align:top;">:</td><td><div>GET</div></td></tr><tr><td style="font-weight:bold;vertical-align:top;">request_uri</td><td style="vertical-align:top;">:</td><td><div>/naturar</div></td></tr><tr><td style="font-weight:bold;vertical-align:top;">script_name</td><td style="vertical-align:top;">:</td><td><div></div></td></tr><tr><td style="font-weight:bold;vertical-align:top;">server_name</td><td style="vertical-align:top;">:</td><td><div>Atomus</div></td></tr><tr><td style="font-weight:bold;vertical-align:top;">server_port</td><td style="vertical-align:top;">:</td><td><div>8000</div></td></tr><tr><td style="font-weight:bold;vertical-align:top;">server_protocol</td><td style="vertical-align:top;">:</td><td><div>HTTP/1.1</div></td></tr><tr><td style="font-weight:bold;vertical-align:top;">server_software</td><td style="vertical-align:top;">:</td><td><div>Rocket 1.2.6</div></td></tr><tr><td style="font-weight:bold;vertical-align:top;">web2py_path</td><td style="vertical-align:top;">:</td><td><div>/home/mjl/Dropbox/FITOMEDICINA/naturar/web2py</div></td></tr><tr><td style="font-weight:bold;vertical-align:top;">web2py_version</td><td style="vertical-align:top;">:</td><td><div>2.11.2-stable+timestamp.2015.05.30.16.33.24</div></td></tr><tr><td style="font-weight:bold;vertical-align:top;">wsgi.errors</td><td style="vertical-align:top;">:</td><td><div>&lt;open file &#x27;&lt;stderr&gt;&#x27;, mode &#x27;w&#x27; at 0x7f0a0aa4c1e0&gt;</div></td></tr><tr><td style="font-weight:bold;vertical-align:top;">wsgi.file_wrapper</td><td style="vertical-align:top;">:</td><td><div>&lt;class wsgiref.util.FileWrapper at 0x7f0a003fb6d0&gt;</div></td></tr><tr><td style="font-weight:bold;vertical-align:top;">wsgi.input</td><td style="vertical-align:top;">:</td><td><div>&lt;socket._fileobject object at 0x7f09fc10f7d0&gt;</div></td></tr><tr><td style="font-weight:bold;vertical-align:top;">wsgi.multiprocess</td><td style="vertical-align:top;">:</td><td><div>False</div></td></tr><tr><td style="font-weight:bold;vertical-align:top;">wsgi.multithread</td><td style="vertical-align:top;">:</td><td><div>True</div></td></tr><tr><td style="font-weight:bold;vertical-align:top;">wsgi.run_once</td><td style="vertical-align:top;">:</td><td><div>False</div></td></tr><tr><td style="font-weight:bold;vertical-align:top;">wsgi.url_scheme</td><td style="vertical-align:top;">:</td><td><div>http</div></td></tr><tr><td style="font-weight:bold;vertical-align:top;">wsgi.version</td><td style="vertical-align:top;">:</td><td><div><table><tr><td><div>1</div></td></tr><tr><td><div>0</div></td></tr></table></div></td></tr><tr><td style="font-weight:bold;vertical-align:top;">wsgi_errors</td><td style="vertical-align:top;">:</td><td><div>&lt;open file &#x27;&lt;stderr&gt;&#x27;, mode &#x27;w&#x27; at 0x7f0a0aa4c1e0&gt;</div></td></tr><tr><td style="font-weight:bold;vertical-align:top;">wsgi_file_wrapper</td><td style="vertical-align:top;">:</td><td><div>&lt;class wsgiref.util.FileWrapper at 0x7f0a003fb6d0&gt;</div></td></tr><tr><td style="font-weight:bold;vertical-align:top;">wsgi_input</td><td style="vertical-align:top;">:</td><td><div>&lt;socket._fileobject object at 0x7f09fc10f7d0&gt;</div></td></tr><tr><td style="font-weight:bold;vertical-align:top;">wsgi_multiprocess</td><td style="vertical-align:top;">:</td><td><div>False</div></td></tr><tr><td style="font-weight:bold;vertical-align:top;">wsgi_multithread</td><td style="vertical-align:top;">:</td><td><div>True</div></td></tr><tr><td style="font-weight:bold;vertical-align:top;">wsgi_run_once</td><td style="vertical-align:top;">:</td><td><div>False</div></td></tr><tr><td style="font-weight:bold;vertical-align:top;">wsgi_url_scheme</td><td style="vertical-align:top;">:</td><td><div>http</div></td></tr><tr><td style="font-weight:bold;vertical-align:top;">wsgi_version</td><td style="vertical-align:top;">:</td><td><div><table><tr><td><div>1</div></td></tr><tr><td><div>0</div></td></tr></table></div></td></tr></table></div></td></tr><tr><td style="font-weight:bold;vertical-align:top;">extension</td><td style="vertical-align:top;">:</td><td><div>html</div></td></tr><tr><td style="font-weight:bold;vertical-align:top;">folder</td><td style="vertical-align:top;">:</td><td><div>/home/mjl/Dropbox/FITOMEDICINA/naturar/web2py/applications/naturar/</div></td></tr><tr><td style="font-weight:bold;vertical-align:top;">function</td><td style="vertical-align:top;">:</td><td><div>index</div></td></tr><tr><td style="font-weight:bold;vertical-align:top;">global_settings</td><td style="vertical-align:top;">:</td><td><div><table><tr><td style="font-weight:bold;vertical-align:top;">app_folders</td><td style="vertical-align:top;">:</td><td><div>set([&#x27;/home/mjl/Dropbox/FITOMEDICINA/naturar/web2py/applications/welcome/&#x27;, &#x27;/home/mjl/Dropbox/FITOMEDICINA/naturar/web2py/applications/naturar/&#x27;])</div></td></tr><tr><td style="font-weight:bold;vertical-align:top;">applications_parent</td><td style="vertical-align:top;">:</td><td><div>/home/mjl/Dropbox/FITOMEDICINA/naturar/web2py</div></td></tr><tr><td style="font-weight:bold;vertical-align:top;">cmd_args</td><td style="vertical-align:top;">:</td><td><div><table></table></div></td></tr><tr><td style="font-weight:bold;vertical-align:top;">cmd_options</td><td style="vertical-align:top;">:</td><td><div>&lt;Values at 0x7f0a00362320: {&#x27;verbose&#x27;: False, &#x27;ip&#x27;: &#x27;127.0.0.1&#x27;, &#x27;debuglevel&#x27;: 30, &#x27;with_scheduler&#x27;: False, &#x27;ips&#x27;: [&#x27;127.0.1.1&#x27;], &#x27;shutdown_timeout&#x27;: 5, &#x27;taskbar&#x27;: False, &#x27;with_coverage&#x27;: False, &#x27;scheduler_groups&#x27;: None, &#x27;port&#x27;: 8000, &#x27;maxthreads&#x27;: None, &#x27;softcron&#x27;: False, &#x27;server_name&#x27;: &#x27;Atomus&#x27;, &#x27;bpython&#x27;: False, &#x27;nogui&#x27;: False, &#x27;pid_filename&#x27;: &#x27;httpserver.pid&#x27;, &#x27;print_errors&#x27;: False, &#x27;extcron&#x27;: False, &#x27;runcron&#x27;: False, &#x27;run_system_tests&#x27;: False, &#x27;test&#x27;: None, &#x27;folder&#x27;: &#x27;/home/mjl/Dropbox/FITOMEDICINA/naturar/web2py&#x27;, &#x27;config&#x27;: &#x27;&#x27;, &#x27;minthreads&#x27;: None, &#x27;shell&#x27;: None, &#x27;run&#x27;: &#x27;&#x27;, &#x27;log_filename&#x27;: &#x27;httpserver.log&#x27;, &#x27;profiler_dir&#x27;: None, &#x27;args&#x27;: [&#x27;&#x27;], &#x27;socket_timeout&#x27;: 5, &#x27;ssl_ca_certificate&#x27;: None, &#x27;scheduler&#x27;: None, &#x27;interfaces&#x27;: None, &#x27;ssl_private_key&#x27;: &#x27;&#x27;, &#x27;gae&#x27;: None, &#x27;password&#x27;: &#x27;&lt;ask&gt;&#x27;, &#x27;request_queue_size&#x27;: 5, &#x27;ssl_certificate&#x27;: &#x27;&#x27;, &#x27;cronjob&#x27;: False, &#x27;numthreads&#x27;: None, &#x27;quiet&#x27;: False, &#x27;import_models&#x27;: False, &#x27;timeout&#x27;: 10, &#x27;plain&#x27;: False, &#x27;nobanner&#x27;: False}&gt;</div></td></tr><tr><td style="font-weight:bold;vertical-align:top;">db_sessions</td><td style="vertical-align:top;">:</td><td><div>set([])</div></td></tr><tr><td style="font-weight:bold;vertical-align:top;">debugging</td><td style="vertical-align:top;">:</td><td><div>False</div></td></tr><tr><td style="font-weight:bold;vertical-align:top;">gluon_parent</td><td style="vertical-align:top;">:</td><td><div>/home/mjl/Dropbox/FITOMEDICINA/naturar/web2py</div></td></tr><tr><td style="font-weight:bold;vertical-align:top;">is_jython</td><td style="vertical-align:top;">:</td><td><div>False</div></td></tr><tr><td style="font-weight:bold;vertical-align:top;">is_pypy</td><td style="vertical-align:top;">:</td><td><div>False</div></td></tr><tr><td style="font-weight:bold;vertical-align:top;">is_source</td><td style="vertical-align:top;">:</td><td><div>True</div></td></tr><tr><td style="font-weight:bold;vertical-align:top;">local_hosts</td><td style="vertical-align:top;">:</td><td><div><table><tr><td><div>Atomus</div></td></tr><tr><td><div>::1</div></td></tr><tr><td><div>127.0.1.1</div></td></tr><tr><td><div>::ffff:127.0.0.1</div></td></tr><tr><td><div>127.0.0.1</div></td></tr></table></div></td></tr><tr><td style="font-weight:bold;vertical-align:top;">web2py_version</td><td style="vertical-align:top;">:</td><td><div>2.11.2-stable+timestamp.2015.05.30.16.33.24</div></td></tr></table></div></td></tr><tr><td style="font-weight:bold;vertical-align:top;">is_https</td><td style="vertical-align:top;">:</td><td><div>False</div></td></tr><tr><td style="font-weight:bold;vertical-align:top;">is_local</td><td style="vertical-align:top;">:</td><td><div>True</div></td></tr><tr><td style="font-weight:bold;vertical-align:top;">is_restful</td><td style="vertical-align:top;">:</td><td><div>False</div></td></tr><tr><td style="font-weight:bold;vertical-align:top;">is_sheduler</td><td style="vertical-align:top;">:</td><td><div>None</div></td></tr><tr><td style="font-weight:bold;vertical-align:top;">is_shell</td><td style="vertical-align:top;">:</td><td><div>None</div></td></tr><tr><td style="font-weight:bold;vertical-align:top;">now</td><td style="vertical-align:top;">:</td><td><div>datetime.datetime(2016, 3, 28, 9, 30, 21, 205690)</div></td></tr><tr><td style="font-weight:bold;vertical-align:top;">raw_args</td><td style="vertical-align:top;">:</td><td><div></div></td></tr><tr><td style="font-weight:bold;vertical-align:top;">raw_extension</td><td style="vertical-align:top;">:</td><td><div>None</div></td></tr><tr><td style="font-weight:bold;vertical-align:top;">url</td><td style="vertical-align:top;">:</td><td><div>/naturar</div></td></tr><tr><td style="font-weight:bold;vertical-align:top;">utcnow</td><td style="vertical-align:top;">:</td><td><div>datetime.datetime(2016, 3, 28, 12, 30, 21, 205708)</div></td></tr><tr><td style="font-weight:bold;vertical-align:top;">wsgi</td><td style="vertical-align:top;">:</td><td><div>&lt;gluon.main.LazyWSGI object at 0x7f09fc0b1650&gt;</div></td></tr></table></div>'
tRp68
sS'frames'
p69
(lp70
(dp71
S'file'
p72
S'/home/mjl/Dropbox/FITOMEDICINA/naturar/web2py/gluon/restricted.py'
p73
sS'dump'
p74
(dp75
S'environment'
p76
S"{'A': <class 'gluon.html.A'>, 'ANY_OF': <class 'gluon.validators.ANY_OF'>, 'ASSIGNJS': <function ASSIGNJS>, 'AppConfig': <function AppConfig>, 'Auth': <class 'gluon.tools.Auth'>, 'B': <class 'gluon.html.B'>, 'BEAUTIFY': <class 'gluon.html.BEAUTIFY'>, 'BODY': <class 'gluon.html.BODY'>, 'BR': <class 'gluon.html.BR'>, 'BUTTON': <class 'gluon.html.BUTTON'>, ...}"
p77
sS'ccode'
p78
S'<code object <module> at 0x7f09e4730930, file "/...b2py/applications/naturar/models/db.py", line 13>'
p79
ssS'lnum'
p80
I227
sS'lines'
p81
(dp82
I224
S'            ccode = code'
p83
sI225
S'        else:'
p84
sI226
S'            ccode = compile2(code, layer)'
p85
sI227
S'        exec ccode in environment'
p86
sI228
S'    except HTTP:'
p87
sI229
S'        raise'
p88
sI230
S'    except RestrictedError:'
p89
sI231
S'        # do not encapsulate (obfuscate) the original RestrictedError'
p90
sI222
S'    try:'
p91
sI223
S'        if isinstance(code, types.CodeType):'
p92
ssS'call'
p93
S"(code='# -*- coding: utf-8 -*-\\n\\n#######################...auditing\\n#~ auth.enable_record_versioning(db)\\n\\n\\n\\n', environment={'A': <class 'gluon.html.A'>, 'ANY_OF': <class 'gluon.validators.ANY_OF'>, 'ASSIGNJS': <function ASSIGNJS>, 'AppConfig': <function AppConfig>, 'Auth': <class 'gluon.tools.Auth'>, 'B': <class 'gluon.html.B'>, 'BEAUTIFY': <class 'gluon.html.BEAUTIFY'>, 'BODY': <class 'gluon.html.BODY'>, 'BR': <class 'gluon.html.BR'>, 'BUTTON': <class 'gluon.html.BUTTON'>, ...}, layer='/home/mjl/Dropbox/FITOMEDICINA/naturar/web2py/applications/naturar/models/db.py')"
p94
sS'func'
p95
S'restricted'
p96
sa(dp97
g72
S'/home/mjl/Dropbox/FITOMEDICINA/naturar/web2py/applications/naturar/models/db.py'
p98
sg74
(dp99
S'db.settings'
p100
S'<Table settings (id,imagedir)>'
p101
sS'db'
p102
S'<DAL uri="postgres:******@localhost/naturardb">'
p103
sS').select'
p104
S'undefined'
p105
sS'db.settings.id'
p106
S'<pydal.objects.Field object>'
p107
sS'settings'
p108
g105
ssg80
I127
sg81
(dp109
I128
S'if not settings:'
p110
sI129
S'    settings = db.settings.insert()'
p111
sI130
S''
sI131
S'# --------------------------------------------------------------------'
p112
sI122
S'    Field(\'imagedir\', default="applications/naturar/images_molecule/"),'
p113
sI123
S"    #~ Field('max_size', 'integer', default=10),"
p114
sI124
S"    #~ Field('summary', 'text', 'abc'),"
p115
sI125
S')'
sI126
S'# create an instance of settings table'
p116
sI127
S'settings = db(db.settings.id > 0).select().first()'
p117
ssg93
S'()'
p118
sg95
S'<module>'
p119
sa(dp120
g72
S'/home/mjl/Dropbox/FITOMEDICINA/naturar/web2py/gluon/packages/dal/pydal/objects.py'
p121
sg74
(dp122
S'self.query'
p123
S'<Query (settings.id > 0)>'
p124
sS'adapter.select'
p125
S'<bound method PostgreSQLAdapter.select of <pydal.adapters.postgres.PostgreSQLAdapter object>>'
p126
sS'fields'
p127
S'[<pydal.objects.Field object>, <pydal.objects.Field object>]'
p128
sS'adapter'
p129
S'<pydal.adapters.postgres.PostgreSQLAdapter object>'
p130
sS'attributes'
p131
S'{}'
p132
sS'self'
p133
S'<Set (settings.id > 0)>'
p134
ssg80
I1986
sg81
(dp135
I1984
S"                                    attributes.get('groupby',None))"
p136
sI1985
S'        fields = adapter.expand_all(fields, tablenames)'
p137
sI1986
S'        return adapter.select(self.query,fields,attributes)'
p138
sI1987
S''
sI1988
S'    def iterselect(self, *fields, **attributes):'
p139
sI1989
S'        adapter = self.db._adapter'
p140
sI1990
S'        tablenames = adapter.tables(self.query,'
p141
sI1981
S"                                    attributes.get('join',None),"
p142
sI1982
S"                                    attributes.get('left',None),"
p143
sI1983
S"                                    attributes.get('orderby',None),"
p144
ssg93
S'(self=<Set (settings.id > 0)>, *fields=[<pydal.objects.Field object>, <pydal.objects.Field object>], **attributes={})'
p145
sg95
S'select'
p146
sa(dp147
g72
S'/home/mjl/Dropbox/FITOMEDICINA/naturar/web2py/gluon/packages/dal/pydal/adapters/base.py'
p148
sg74
(dp149
S'fields'
p150
S'[<pydal.objects.Field object>, <pydal.objects.Field object>]'
p151
sS'self'
p152
S'<pydal.adapters.postgres.PostgreSQLAdapter object>'
p153
sS'attributes'
p154
g132
sS'self._select_aux'
p155
S'<bound method PostgreSQLAdapter._select_aux of <pydal.adapters.postgres.PostgreSQLAdapter object>>'
p156
sS'sql'
p157
S"'SELECT  settings.id, settings.imagedir FROM settings WHERE (settings.id > 0);'"
p158
ssg80
I1258
sg81
(dp159
I1253
S'            return cache_model('
p160
sI1254
S'                key,'
p161
sI1255
S'                lambda self=self,args=args:self._select_aux(*args),'
p162
sI1256
S'                time_expire)'
p163
sI1257
S'        else:'
p164
sI1258
S'            return self._select_aux(sql,fields,attributes)'
p165
sI1259
S''
sI1260
S'    def iterselect(self, query, fields, attributes):'
p166
sI1261
S'        sql = self._select(query, fields, attributes)'
p167
sI1262
S"        cacheable = attributes.get('cacheable', False)"
p168
ssg93
S'(self=<pydal.adapters.postgres.PostgreSQLAdapter object>, query=<Query (settings.id > 0)>, fields=[<pydal.objects.Field object>, <pydal.objects.Field object>], attributes={})'
p169
sg95
g146
sa(dp170
g72
S'/home/mjl/Dropbox/FITOMEDICINA/naturar/web2py/gluon/packages/dal/pydal/adapters/base.py'
p171
sg74
(dp172
S'self'
p173
S'<pydal.adapters.postgres.PostgreSQLAdapter object>'
p174
sS'self.execute'
p175
S'<bound method PostgreSQLAdapter.execute of <pydal.adapters.postgres.PostgreSQLAdapter object>>'
p176
sS'sql'
p177
S"'SELECT  settings.id, settings.imagedir FROM settings WHERE (settings.id > 0);'"
p178
ssg80
I1215
sg81
(dp179
I1216
S'            rows = self._fetchall()'
p180
sI1217
S'        else:'
p181
sI1218
S'            if isinstance(cache, dict):'
p182
sI1219
S"                cache_model = cache['model']"
p183
sI1210
S''
sI1211
S'    def _select_aux(self, sql, fields, attributes):'
p184
sI1212
S'        args_get = attributes.get'
p185
sI1213
S"        cache = args_get('cache',None)"
p186
sI1214
S'        if not cache:'
p187
sI1215
S'            self.execute(sql)'
p188
ssg93
S"(self=<pydal.adapters.postgres.PostgreSQLAdapter object>, sql='SELECT  settings.id, settings.imagedir FROM settings WHERE (settings.id > 0);', fields=[<pydal.objects.Field object>, <pydal.objects.Field object>], attributes={})"
p189
sg95
S'_select_aux'
p190
sa(dp191
g72
S'/home/mjl/Dropbox/FITOMEDICINA/naturar/web2py/gluon/packages/dal/pydal/adapters/base.py'
p192
sg74
(dp193
S'a'
S"('SELECT  settings.id, settings.imagedir FROM settings WHERE (settings.id > 0);',)"
p194
sS'self'
p195
S'<pydal.adapters.postgres.PostgreSQLAdapter object>'
p196
sS'b'
g132
sS'self.log_execute'
p197
S'<bound method PostgreSQLAdapter.log_execute of <pydal.adapters.postgres.PostgreSQLAdapter object>>'
p198
ssg80
I1350
sg81
(dp199
I1345
S'        self.db._timings.append((command,time.time()-t0))'
p200
sI1346
S'        del self.db._timings[:-TIMINGSSIZE]'
p201
sI1347
S'        return ret'
p202
sI1348
S''
sI1349
S'    def execute(self, *a, **b):'
p203
sI1350
S'        return self.log_execute(*a, **b)'
p204
sI1351
S''
sI1352
S'    def represent(self, obj, fieldtype):'
p205
sI1353
S'        field_is_type = fieldtype.startswith'
p206
sI1354
S'        if isinstance(obj, CALLABLETYPES):'
p207
ssg93
S"(self=<pydal.adapters.postgres.PostgreSQLAdapter object>, *a=('SELECT  settings.id, settings.imagedir FROM settings WHERE (settings.id > 0);',), **b={})"
p208
sg95
S'execute'
p209
sa(dp210
g72
S'/home/mjl/Dropbox/FITOMEDICINA/naturar/web2py/gluon/packages/dal/pydal/adapters/base.py'
p211
sg74
(dp212
S'a'
S"('SELECT  settings.id, settings.imagedir FROM settings WHERE (settings.id > 0);',)"
p213
sS'b'
g132
sS'self'
p214
S'<pydal.adapters.postgres.PostgreSQLAdapter object>'
p215
sS'ret'
p216
g105
sS'self.cursor'
p217
S'<cursor object at 0x7f09fc08f148; closed: 0>'
p218
sS'command'
p219
S"'SELECT  settings.id, settings.imagedir FROM settings WHERE (settings.id > 0);'"
p220
sS'self.cursor.execute'
p221
S'<built-in method execute of psycopg2._psycopg.cursor object>'
p222
ssg80
I1344
sg81
(dp223
I1344
S'        ret = self.cursor.execute(command, *a[1:], **b)'
p224
sI1345
S'        self.db._timings.append((command,time.time()-t0))'
p225
sI1346
S'        del self.db._timings[:-TIMINGSSIZE]'
p226
sI1347
S'        return ret'
p227
sI1348
S''
sI1339
S'            command = self.filter_sql_command(command)'
p228
sI1340
S'        if self.db._debug:'
p229
sI1341
S"            self.db.logger.debug('SQL: %s' % command)"
p230
sI1342
S'        self.db._lastsql = command'
p231
sI1343
S'        t0 = time.time()'
p232
ssg93
S"(self=<pydal.adapters.postgres.PostgreSQLAdapter object>, *a=('SELECT  settings.id, settings.imagedir FROM settings WHERE (settings.id > 0);',), **b={})"
p233
sg95
S'log_execute'
p234
sasS'pyver'
p235
S'Python 2.7.6: /usr/bin/python (prefix: /usr)'
p236
sS'session'
p237
g67
(S's\x1a\x00\x00\x00<div><table></table></div>'
tRp238
sS'etype'
p239
S"<class 'psycopg2.ProgrammingError'>"
p240
sS'date'
p241
S'Mon Mar 28 09:30:21 2016'
p242
sS'response'
p243
g67
(S's\xd7\x16\x00\x00<div><table><tr><td style="font-weight:bold;vertical-align:top;">body</td><td style="vertical-align:top;">:</td><td><div>&lt;cStringIO.StringO object at 0x7f09fc088dc0&gt;</div></td></tr><tr><td style="font-weight:bold;vertical-align:top;">cookies</td><td style="vertical-align:top;">:</td><td><div><table><tr><td style="font-weight:bold;vertical-align:top;">session_id_naturar</td><td style="vertical-align:top;">:</td><td><div>127.0.0.1-87bea2e2-814d-494e-9f5e-2d87ef83cb5c<table><tr><td style="font-weight:bold;vertical-align:top;">comment</td><td style="vertical-align:top;">:</td><td><div></div></td></tr><tr><td style="font-weight:bold;vertical-align:top;">domain</td><td style="vertical-align:top;">:</td><td><div></div></td></tr><tr><td style="font-weight:bold;vertical-align:top;">expires</td><td style="vertical-align:top;">:</td><td><div></div></td></tr><tr><td style="font-weight:bold;vertical-align:top;">httponly</td><td style="vertical-align:top;">:</td><td><div></div></td></tr><tr><td style="font-weight:bold;vertical-align:top;">max-age</td><td style="vertical-align:top;">:</td><td><div></div></td></tr><tr><td style="font-weight:bold;vertical-align:top;">path</td><td style="vertical-align:top;">:</td><td><div>/</div></td></tr><tr><td style="font-weight:bold;vertical-align:top;">secure</td><td style="vertical-align:top;">:</td><td><div></div></td></tr><tr><td style="font-weight:bold;vertical-align:top;">version</td><td style="vertical-align:top;">:</td><td><div></div></td></tr></table></div></td></tr></table></div></td></tr><tr><td style="font-weight:bold;vertical-align:top;">delimiters</td><td style="vertical-align:top;">:</td><td><div><table><tr><td><div>{{</div></td></tr><tr><td><div>}}</div></td></tr></table></div></td></tr><tr><td style="font-weight:bold;vertical-align:top;">files</td><td style="vertical-align:top;">:</td><td><div><table></table></div></td></tr><tr><td style="font-weight:bold;vertical-align:top;">flash</td><td style="vertical-align:top;">:</td><td><div></div></td></tr><tr><td style="font-weight:bold;vertical-align:top;">form_label_separator</td><td style="vertical-align:top;">:</td><td><div></div></td></tr><tr><td style="font-weight:bold;vertical-align:top;">formstyle</td><td style="vertical-align:top;">:</td><td><div>bootstrap3_inline</div></td></tr><tr><td style="font-weight:bold;vertical-align:top;">generic_patterns</td><td style="vertical-align:top;">:</td><td><div><table><tr><td><div>*</div></td></tr></table></div></td></tr><tr><td style="font-weight:bold;vertical-align:top;">headers</td><td style="vertical-align:top;">:</td><td><div><table><tr><td style="font-weight:bold;vertical-align:top;">X-Powered-By</td><td style="vertical-align:top;">:</td><td><div>web2py</div></td></tr></table></div></td></tr><tr><td style="font-weight:bold;vertical-align:top;">menu</td><td style="vertical-align:top;">:</td><td><div><table></table></div></td></tr><tr><td style="font-weight:bold;vertical-align:top;">meta</td><td style="vertical-align:top;">:</td><td><div><table></table></div></td></tr><tr><td style="font-weight:bold;vertical-align:top;">models_to_run</td><td style="vertical-align:top;">:</td><td><div><table><tr><td><div>^\\w+\\.py$</div></td></tr><tr><td><div>^default/\\w+\\.py$</div></td></tr><tr><td><div>^default/index/\\w+\\.py$</div></td></tr></table></div></td></tr><tr><td style="font-weight:bold;vertical-align:top;">postprocessing</td><td style="vertical-align:top;">:</td><td><div><table></table></div></td></tr><tr><td style="font-weight:bold;vertical-align:top;">session_client</td><td style="vertical-align:top;">:</td><td><div>127.0.0.1</div></td></tr><tr><td style="font-weight:bold;vertical-align:top;">session_cookie_compression_level</td><td style="vertical-align:top;">:</td><td><div>None</div></td></tr><tr><td style="font-weight:bold;vertical-align:top;">session_cookie_expires</td><td style="vertical-align:top;">:</td><td><div>None</div></td></tr><tr><td style="font-weight:bold;vertical-align:top;">session_cookie_key</td><td style="vertical-align:top;">:</td><td><div>None</div></td></tr><tr><td style="font-weight:bold;vertical-align:top;">session_data_name</td><td style="vertical-align:top;">:</td><td><div>session_data_naturar</div></td></tr><tr><td style="font-weight:bold;vertical-align:top;">session_file</td><td style="vertical-align:top;">:</td><td><div>None</div></td></tr><tr><td style="font-weight:bold;vertical-align:top;">session_filename</td><td style="vertical-align:top;">:</td><td><div>/home/mjl/Dropbox/FITOMEDICINA/naturar/web2py/applications/naturar/sessions/127.0.0.1-87bea2e2-814d-494e-9f5e-2d87ef83cb5c</div></td></tr><tr><td style="font-weight:bold;vertical-align:top;">session_hash</td><td style="vertical-align:top;">:</td><td><div>c0762cbf4baf7f9af97c051e7fcb8083</div></td></tr><tr><td style="font-weight:bold;vertical-align:top;">session_id</td><td style="vertical-align:top;">:</td><td><div>127.0.0.1-87bea2e2-814d-494e-9f5e-2d87ef83cb5c</div></td></tr><tr><td style="font-weight:bold;vertical-align:top;">session_id_name</td><td style="vertical-align:top;">:</td><td><div>session_id_naturar</div></td></tr><tr><td style="font-weight:bold;vertical-align:top;">session_masterapp</td><td style="vertical-align:top;">:</td><td><div>naturar</div></td></tr><tr><td style="font-weight:bold;vertical-align:top;">session_new</td><td style="vertical-align:top;">:</td><td><div>True</div></td></tr><tr><td style="font-weight:bold;vertical-align:top;">session_storage_type</td><td style="vertical-align:top;">:</td><td><div>file</div></td></tr><tr><td style="font-weight:bold;vertical-align:top;">status</td><td style="vertical-align:top;">:</td><td><div>200</div></td></tr><tr><td style="font-weight:bold;vertical-align:top;">view</td><td style="vertical-align:top;">:</td><td><div>default/index.html</div></td></tr></table></div>'
tRp244
sS'locals'
p245
(dp246
S'a'
S"('SELECT  settings.id, settings.imagedir FROM settings WHERE (settings.id > 0);',)"
p247
sS'self'
p248
S'<pydal.adapters.postgres.PostgreSQLAdapter object>'
p249
sS'b'
g132
sS'command'
p250
S"'SELECT  settings.id, settings.imagedir FROM settings WHERE (settings.id > 0);'"
p251
sS't0'
p252
S'1459168221.443284'
p253
sssS'traceback'
p254
S'Traceback (most recent call last):\n  File "/home/mjl/Dropbox/FITOMEDICINA/naturar/web2py/gluon/restricted.py", line 227, in restricted\n    exec ccode in environment\n  File "/home/mjl/Dropbox/FITOMEDICINA/naturar/web2py/applications/naturar/models/db.py", line 127, in <module>\n    settings = db(db.settings.id > 0).select().first()\n  File "/home/mjl/Dropbox/FITOMEDICINA/naturar/web2py/gluon/packages/dal/pydal/objects.py", line 1986, in select\n    return adapter.select(self.query,fields,attributes)\n  File "/home/mjl/Dropbox/FITOMEDICINA/naturar/web2py/gluon/packages/dal/pydal/adapters/base.py", line 1258, in select\n    return self._select_aux(sql,fields,attributes)\n  File "/home/mjl/Dropbox/FITOMEDICINA/naturar/web2py/gluon/packages/dal/pydal/adapters/base.py", line 1215, in _select_aux\n    self.execute(sql)\n  File "/home/mjl/Dropbox/FITOMEDICINA/naturar/web2py/gluon/packages/dal/pydal/adapters/base.py", line 1350, in execute\n    return self.log_execute(*a, **b)\n  File "/home/mjl/Dropbox/FITOMEDICINA/naturar/web2py/gluon/packages/dal/pydal/adapters/base.py", line 1344, in log_execute\n    ret = self.cursor.execute(command, *a[1:], **b)\nProgrammingError: relation "settings" does not exist\nLINE 1: SELECT  settings.id, settings.imagedir FROM settings WHERE (...\n                                                    ^\n\n'
p255
s.