(dp1
S'output'
p2
S'<type \'exceptions.RuntimeError\'> Failure to connect, tried 5 times:\nTraceback (most recent call last):\n  File "/home/mjl/Dropbox/FITOMEDICINA/web2py/gluon/packages/dal/pydal/base.py", line 446, in __init__\n    self._adapter = ADAPTERS[self._dbname](**kwargs)\n  File "/home/mjl/Dropbox/FITOMEDICINA/web2py/gluon/packages/dal/pydal/adapters/base.py", line 60, in __call__\n    obj = super(AdapterMeta, cls).__call__(*args, **kwargs)\n  File "/home/mjl/Dropbox/FITOMEDICINA/web2py/gluon/packages/dal/pydal/adapters/postgres.py", line 155, in __init__\n    self.reconnect()\n  File "/home/mjl/Dropbox/FITOMEDICINA/web2py/gluon/packages/dal/pydal/connection.py", line 104, in reconnect\n    self.connection = f()\n  File "/home/mjl/Dropbox/FITOMEDICINA/web2py/gluon/packages/dal/pydal/adapters/postgres.py", line 152, in connector\n    return self.driver.connect(**driver_args)\n  File "/usr/lib/python2.7/dist-packages/psycopg2/__init__.py", line 179, in connect\n    connection_factory=connection_factory, async=async)\nOperationalError: FATAL:  password authentication failed for user "fito"\nFATAL:  password authentication failed for user "fito"\n\n'
p3
sS'layer'
p4
S'/home/mjl/Dropbox/FITOMEDICINA/web2py/applications/naturar/models/db.py'
p5
sS'code'
p6
S'# -*- coding: utf-8 -*-\n\n#########################################################################\n## This scaffolding model makes your app work on Google App Engine too\n## File is released under public domain and you can use without limitations\n#########################################################################\n\n## if SSL/HTTPS is properly configured and you want all HTTP requests to\n## be redirected to HTTPS, uncomment the line below:\n# request.requires_https()\n\n## app configuration made easy. Look inside private/appconfig.ini\nfrom gluon.contrib.appconfig import AppConfig\n\n## to use mol field of RDKIT\nfrom gluon.dal import SQLCustomType\n\n## once in production, remove reload=True to gain full speed\nmyconf = AppConfig(reload=True)\n\n\n\n#~ if not request.env.web2py_runtime_gae:\n    #~ ## if NOT running on Google App Engine use SQLite or other DB\n    #~ db = DAL(myconf.take(\'db.uri\'), pool_size=myconf.take(\'db.pool_size\', cast=int), check_reserved=[\'all\'])\n#~ else:\n    #~ ## connect to Google BigTable (optional \'google:datastore://namespace\')\n    #~ db = DAL(\'google:datastore+ndb\')\n    #~ ## store sessions and tickets there\n    #~ session.connect(request, response, db=db)\n    #~ ## or store session in Memcache, Redis, etc.\n    #~ ## from gluon.contrib.memdb import MEMDB\n    #~ ## from google.appengine.api.memcache import Client\n    #~ ## session.connect(request, response, db = MEMDB(Client()))\n    #~ \n#~ db = DAL("postgres://fito:123456@localhost/naturardb")\n#~ db = DAL("postgres://fito:123456@localhost/naturardb", migrate=True, fake_migrate=True,)\ndb = DAL("postgres://fito:123456@localhost/naturardb", migrate=True)\n\n#~ db = DAL("postgres://fito:123456@localhost/naturardb", lazy_tables=True)\n\n## by default give a view/generic.extension to all actions from localhost\n## none otherwise. a pattern can be \'controller/function.extension\'\nresponse.generic_patterns = [\'*\'] if request.is_local else []\n## choose a style for forms\nresponse.formstyle = myconf.take(\'forms.formstyle\')  # or \'bootstrap3_stacked\' or \'bootstrap2\' or other\nresponse.form_label_separator = myconf.take(\'forms.separator\')\n\n\n## (optional) optimize handling of static files\n# response.optimize_css = \'concat,minify,inline\'\n# response.optimize_js = \'concat,minify,inline\'\n## (optional) static assets folder versioning\n# response.static_version = \'0.0.0\'\n#########################################################################\n## Here is sample code if you need for\n## - email capabilities\n## - authentication (registration, login, logout, ... )\n## - authorization (role based authorization)\n## - services (xml, csv, json, xmlrpc, jsonrpc, amf, rss)\n## - old style crud actions\n## (more options discussed in gluon/tools.py)\n#########################################################################\n\nfrom gluon.tools import Auth, Service, PluginManager\n\nauth = Auth(db)\nservice = Service()\nplugins = PluginManager()\n\n## extra fields (mjl)\nauth.settings.extra_fields[\'auth_user\']= [\n    Field(\'address\', type=\'text\', label=T(\'Address\')),\n    Field(\'phone\', type=\'text\', label=T(\'Phone\')),\n    Field(\'picture\', type=\'upload\', label=T(\'Picture\')),\n    Field(\'rearchdescription\', type=\'text\', label=T(\'Research Description\')),\n    Field(\'additionalinfo\', type=\'text\', label=T(\'Additional Information\')),\n    ]\n\n\n## create all tables needed by auth if not custom tables\nauth.define_tables(username=False, signature=False) \n\n\n## configure email\nmail = auth.settings.mailer\nmail.settings.server = \'logging\' if request.is_local else myconf.take(\'smtp.server\')\nmail.settings.sender = myconf.take(\'smtp.sender\')\nmail.settings.login = myconf.take(\'smtp.login\')\n\n## configure auth policy\nauth.settings.registration_requires_verification = False\nauth.settings.registration_requires_approval = False\nauth.settings.reset_password_requires_verification = True\n\n\n#########################################################################\n## Define your tables below (or better in another model file) for example\n##\n## >>> db.define_table(\'mytable\',Field(\'myfield\',\'string\'))\n##\n## Fields can be \'string\',\'text\',\'password\',\'integer\',\'double\',\'boolean\'\n##       \'date\',\'time\',\'datetime\',\'blob\',\'upload\', \'reference TABLENAME\'\n## There is an implicit \'id integer autoincrement\' field\n## Consult manual for more options, validators, etc.\n##\n## More API examples for controllers:\n##\n## >>> db.mytable.insert(myfield=\'value\')\n## >>> rows=db(db.mytable.myfield==\'value\').select(db.mytable.ALL)\n## >>> for row in rows: print row.id, row.myfield\n#########################################################################\n\n# --------------------------------------------------------------------\n# SETTINGS\n# --------------------------------------------------------------------\n\n\n#~ settings.max_size # get the value\n#~ settings.update_record(summary=new_summary) # set a value \ndb.define_table(\'settings\', \n    Field(\'imagedir\', default="applications/naturar/images_molecule/"),\n    #~ Field(\'max_size\', \'integer\', default=10),\n    #~ Field(\'summary\', \'text\', \'abc\'),\n)\n# create an instance of settings table\nsettings = db(db.settings.id > 0).select().first()\nif not settings:\n    settings = db.settings.insert()\n\n# --------------------------------------------------------------------    \n# LOCATION\n# --------------------------------------------------------------------\n\n\'\'\'data is extrated of Yahoo and Google webservices \'\'\'\ndb.define_table(\'location\',  \n    auth.signature,\n    Field(\'country\', type=\'string\'),\n    Field(\'state\', type=\'string\'),\n    Field(\'city\', type=\'string\'),\n    Field(\'place\', type=\'string\'),\n    Field(\'latitude\', type=\'double\'),\n    Field(\'longitude\', type=\'double\'),\n    Field(\'yahoowoeid\', type=\'integer\'),\n    Field(\'googleplaceid\', type=\'string\'),\n    Field(\'placetypename\', type=\'string\'),\n    )\n\n\n# --------------------------------------------------------------------\n# DOCS\n# --------------------------------------------------------------------\n\n\'\'\'\nStore bibliographic information, this can be obtained from Crossref API\n\'\'\'\ndb.define_table(\'doc\', \n    auth.signature,\n    Field(\'journal\', type=\'string\'),\n    Field(\'year\', type=\'datetime\', requires = IS_DATE(format=(\'%Y\'))),\n    Field(\'volume\', type=\'integer\'),\n    Field(\'issue\', type=\'integer\'),\n    Field(\'firstpage\', type=\'integer\'),\n    Field(\'lastpage\', type=\'integer\'),\n    Field(\'doi\', type=\'string\'),\n    Field(\'isbn\', type=\'string\'),\n    Field(\'pubmed_id\'),\n    Field(\'title\', type=\'text\'),\n    Field(\'doctype\', type=\'string\'),\n    Field(\'authors\'),\n    Field(\'abstract\', type=\'text\'),\n    Field(\'url\', type=\'text\'),\n    )\n\n\n# --------------------------------------------------------------------\n# COMPOUND INFORMATION\n# --------------------------------------------------------------------\n\n\'\'\'\nStore compound information\n\'\'\'\ndb.define_table(\'compound\', \n    auth.signature,\n    #~ Field(\'compoundname\', requires=IS_NOT_EMPTY()),\n    #~ Field(\'iupacname\', type=\'string\'),\n    Field(\'inchi\', type=\'string\', readable=False, writable=False),\n    Field(\'inchikey\', type=\'string\', readable=False, writable=False),\n    Field(\'isosmiles\', type=\'string\', readable=False, writable=False),\n    Field(\'cansmiles\', type=\'string\', readable=False, writable=False),\n    Field(\'imagepath\', type=\'text\', readable=False, writable=False),\n    Field(\'addinfo\', type=\'text\'), \n    Field(\'approved\', type=\'boolean\', readable=False, writable=False), \n    #~ format=\'c%(id)i-%(name)s\',\n    )\n    \n\'\'\'\nMany to many table relationship: Docs and Compounds\n\'\'\'\ndb.define_table(\'compound_doc\',\n    auth.signature,\n    Field(\'compound_id\', \'reference compound\'),\n    Field(\'doc_id\', \'reference doc\'),\n    )\n\n\'\'\'\nStructures (conformers) of compounds\n\'\'\'\n#~ db.executesql(\'CREATE TABLE IF NOT EXISTS structure ( \\\n    #~ id integer NOT null, \\\n    #~ molstructure MOL, \\\n    #~ compound_id int references compound(id), \\\n    #~ CONSTRAINT structure_pk PRIMARY KEY (id));\')\nmol = SQLCustomType(\n    type =\'text\',\n    native =\'mol\',\n    )\n\ndb.define_table(\'structure\',\n    auth.signature,\n    Field(\'molstructure\', type=mol),\n    Field(\'compound_id\', \'reference compound\'),\n    )\n\n\'\'\'\nStore descriptors of 3D structures\n\'\'\'\ndb.define_table(\'structuredescriptor\',\n    auth.signature,\n    Field(\'methodname\', type=\'string\')\n    )\n    \n\'\'\'\nMany to many table relationship: StructureDescriptors and Structures\n\'\'\'\ndb.define_table(\'structure_descriptor\',\n    auth.signature,\n    Field(\'structuredescriptor_id\', \'reference structuredescriptor\'),\n    Field(\'structure_id\', \'reference structure\'),\n    Field(\'descriptorvalue\'),\n    )    \n\n\'\'\'\nTypes of compound synomys\n\'\'\'\ndb.define_table(\'synonymtype\',\n    auth.signature,\n    Field(\'synonymtype\', type=\'string\'),\n    ) \n\n\'\'\'\nStore synonyms of compound names\n\'\'\'\ndb.define_table(\'synonym\',\n    auth.signature,\n    Field(\'synonymtype_id\', \'reference synonymtype\'),\n    Field(\'synonymname\', type=\'string\'),\n    Field(\'compound_id\', \'reference compound\'),\n    )    \n\n\'\'\'\nList of compound classification, active.\n\'\'\'\ndb.define_table(\'classification\',\n    auth.signature,\n    Field(\'classificationname\', type=\'string\'),\n    Field(\'classificationdescription\', type=\'text\'),\n    )\n\n\'\'\'\nMany to many table relationship: Classification and Compounds\n\'\'\'\ndb.define_table(\'compound_classification\',\n    auth.signature,\n    Field(\'compound_id\', \'reference compound\'),\n    Field(\'classification_id\', \'reference classification\'),\n    )\n    \n\'\'\'\nList of compound class,  \nfuctional groups, ej aminas, sulfonamidas, etc.\n\'\'\'\ndb.define_table(\'chemicalclass\',\n    auth.signature,\n    Field(\'classname_en\', type=\'string\'),\n    Field(\'classname_es\', type=\'string\'),\n    Field(\'classdescription\', type=\'text\'),\n    )\n\n\'\'\'\nMany to many table relationship: Chemicalclass and Compounds,\n\'\'\'\ndb.define_table(\'compound_chemicalclass\',\n    auth.signature,\n    Field(\'compound_id\', \'reference compound\'),\n    Field(\'chemicalclass_id\', \'reference chemicalclass\'),\n    )\n    \n\'\'\'\nDefine isomer relationships between two compounds\n\'\'\'\ndb.define_table(\'isomer\',\n    auth.signature,\n    Field(\'compound1_id\', \'reference compound\'),\n    Field(\'compound2_id\', \'reference compound\'),\n    )\n\n\n#~ # define autocomplete function for extracto\n#~ db.compound_record.extract.widget = SQLFORM.widgets.autocomplete(\n     #~ request, db.extract_record.extract_name, id_field=db.extract_record.id, limitby=(0,10), min_length=2)\n\n\'\'\'\nList of calculated properties\n\'\'\'\ndb.define_table(\'compoundproperty\', \n    auth.signature,\n    Field(\'compound_id\', \'reference compound\'),\n    Field(\'molecularweight\', type=\'decimal(10,4)\'),\n    Field(\'molecularformula\', type=\'string\'),\n    Field(\'molecularvolume\', type=\'decimal(10,3)\', label="volumen"),\n    Field(\'logp\', type=\'decimal(10,4)\'),\n    Field(\'tpsa\', type=\'decimal(10,4)\'),\n    Field(\'hbd\', type=\'integer\'),\n    Field(\'hba\', type=\'integer\'),\n    Field(\'numrotatable\', type=\'integer\'),\n    Field(\'numring\', type=\'integer\'),\n    Field(\'numn\', type=\'integer\'),\n    Field(\'numo\', type=\'integer\'),\n    Field(\'nums\', type=\'integer\'),\n    Field(\'numro5violation\', type=\'integer\'),\n    )\n\n\'\'\'\nList of extra properties\n\'\'\'\ndb.define_table(\'extraproperty\', \n    auth.signature,\n    Field(\'extrapropertyname_en\', type=\'string\'),\n    Field(\'extrapropertyname_es\', type=\'string\'),\n    )\n\n\'\'\'\nMany to many table relationship: Extraproperty and Compounds,\n\'\'\'\ndb.define_table(\'compound_extraproperty\',\n    auth.signature,\n    Field(\'compound_id\', \'reference compound\'),\n    Field(\'extraproperty_id\', \'reference extraproperty\'),\n    Field(\'extrapropertyvalue\')\n    )\n\n\n# --------------------------------------------------------------------\n# SOURCE INFORMATION\n# --------------------------------------------------------------------\n\n\'\'\' \nTable where is stored source information obtained frod databases like \nCatalogue of Life using webservices.\ndbname is the name of the database whereis is obtained the data and \nidfromdb is the original ID code .\n\'\'\'\ndb.define_table(\'source\', \n    auth.signature,\n    Field(\'scientificname\', type=\'string\'),\n    Field(\'sourcekingdom\', type=\'string\'),\n    Field(\'sourcefamily\', type=\'string\'),\n    Field(\'sourcegenus\', type=\'string\'),\n    Field(\'sourcespecies\', type=\'string\'),\n    Field(\'variety\', type=\'string\'),\n    Field(\'ethnomedicinalinfo\', type=\'text\'),\n    Field(\'dbname\', type=\'string\'),\n    Field(\'idfromdb\', type=\'string\'),\n    )\n\n\'\'\'\nImages of sources\n\'\'\'\ndb.define_table(\'sourceimage\',\n    auth.signature,\n    Field(\'source_id\', \'reference source\'),\n    Field(\'sourceimage\', type=\'string\'),\n    Field(\'credit\', type=\'string\'),\n    )\n\n\'\'\'\nNative names of a source\n\'\'\'\ndb.define_table(\'nativename\',\n    auth.signature,\n    Field(\'source_id\', \'reference source\'),\n    Field(\'nativename\', type=\'string\'),\n    Field(\'culture\', type=\'string\'),\n    )\n    \n\'\'\'\nCommon names of a source\n\'\'\'\ndb.define_table(\'commonname\',\n    auth.signature,\n    Field(\'source_id\', \'reference source\'),\n    Field(\'commonname\', type=\'string\'),\n    )\n    \n\'\'\'\nMedicinal Uses\n\'\'\'\ndb.define_table(\'medicinal\',\n    auth.signature,\n    Field(\'medicinaluse_en\', type=\'string\'),\n    Field(\'medicinaluse_es\', type=\'string\'),\n    )\n\n\'\'\'\nMany to many table relationship: Medicinal Uses and Sources\n\'\'\'\ndb.define_table(\'source_medicinal\',\n    auth.signature,\n    Field(\'source_id\', \'reference source\'),\n    Field(\'medicinal_id\', \'reference medicinal\'),\n    )\n    \n\'\'\'\nFood Uses\n\'\'\'\ndb.define_table(\'food\',\n    auth.signature,\n    Field(\'fooduse_en\', type=\'string\'),\n    Field(\'fooduse_es\', type=\'string\'),\n    )\n\n\'\'\'\nMany to many table relationship: Food Uses and Sources\n\'\'\'\ndb.define_table(\'source_food\',\n    auth.signature,\n    Field(\'source_id\', \'reference source\'),\n    Field(\'food_id\', \'reference food\'),\n    )\n\n\n\'\'\'\nOther Uses\n\'\'\'\ndb.define_table(\'otheruse\',\n    auth.signature,\n    Field(\'otherusename\', type=\'string\'),\n    )\n\n\'\'\'\nMany to many table relationship: Other Uses and Sources\n\'\'\'\ndb.define_table(\'source_otheruse\',\n    auth.signature,\n    Field(\'source_id\', \'reference source\'),\n    Field(\'otheruse_id\', \'reference otheruse\'),\n    )\n\n\'\'\'\nMany to many table relationship: Location and Sources\n\'\'\'\ndb.define_table(\'source_location\',\n    auth.signature,\n    Field(\'source_id\', \'reference source\'),\n    Field(\'location_id\', \'reference location\'),\n    )\n\n\'\'\'\nMany to many table relationship: Docs and Sources\n\'\'\'\ndb.define_table(\'source_doc\',\n    auth.signature,\n    Field(\'source_id\', \'reference source\'),\n    Field(\'doc_id\', \'reference doc\'),\n    )\n     \n     \n# --------------------------------------------------------------------\n# USERS (cont.)\n# --------------------------------------------------------------------\n\n\'\'\'\nStore internal messages between members\n\'\'\'\ndb.define_table(\'message\',\n    auth.signature,\n    Field(\'messagetitle\', type=\'string\'),\n    Field(\'messagebody\', type=\'text\'),\n    Field(\'usersent_id\', \'reference auth_user\'),\n    Field(\'userreceiver_id\', \'reference auth_user\'),\n    Field(\'date\', type=\'datetime\'),\n    )\n\n\'\'\'\nResearch groups\n\'\'\'\ndb.define_table(\'researchgroup\',\n    auth.signature,\n    Field(\'reseachname\', type=\'string\'),\n    Field(\'institution\', type=\'string\'),\n    Field(\'webpage\', type=\'string\'),\n    Field(\'email\', type=\'string\'),\n    Field(\'telephone\', type=\'string\'),\n    Field(\'address\', type=\'string\'),\n    Field(\'location_id\', \'reference location\'),\n    Field(\'logo\', type=\'upload\'),\n    )\n    \n\'\'\'\nMany to many table relationship: Research Groups and Users\n\'\'\'\ndb.define_table(\'user_reseach\',\n    auth.signature,\n    Field(\'user_id\', \'reference auth_user\'),\n    Field(\'researchgroup_id\', \'reference researchgroup\'),\n    )\n    \n\'\'\'\nMany to many table relationship: Docs and Users\n\'\'\'\ndb.define_table(\'user_doc\',\n    auth.signature,\n    Field(\'user_id\', \'reference auth_user\'),\n    Field(\'doc_id\', \'reference doc\'),\n    )   \n\n\'\'\'\nMany to many table relationship: Compounds and Users to store in profile \n\'\'\'\ndb.define_table(\'bookmark\',\n    auth.signature,\n    Field(\'user_id\', \'reference auth_user\'),\n    Field(\'compound_id\', \'reference compound\'),\n    )   \n\n\n# --------------------------------------------------------------------\n# EXTRACTS\n# --------------------------------------------------------------------\n\n\'\'\'\nList of part from where you can obtain extract\n\'\'\'\ndb.define_table(\'partused\',\n    auth.signature,\n    Field(\'partname_en\'),\n    Field(\'partname_es\'),\n    )\n\n\'\'\'\nMain table of extract\n\'\'\'\ndb.define_table(\'extract\', \n    auth.signature,\n    Field(\'source_id\', \'reference source\'),\n    Field(\'location_id\', \'reference location\'),\n    Field(\'partused_id\', \'reference partused\'),\n    Field(\'extractpreparation\', type=\'text\'),\n    format=\'%(extract_name)s\',\n    )\n\n\'\'\'\nMany to many table relationship: Docs and Extract\n\'\'\'\ndb.define_table(\'extract_doc\',\n    auth.signature,\n    Field(\'extract_id\', \'reference extract\'),\n    Field(\'doc_id\', \'reference doc\'),\n    )\n\n\'\'\'\nMany to many table relationship: Compound and Extract\n\'\'\'\ndb.define_table(\'compound_extract\',\n    auth.signature,\n    Field(\'extract_id\', \'reference extract\'),\n    Field(\'compound_id\', \'reference compound\'),\n    Field(\'compoundamount\', type=\'double\'),\n    )\n\n\n# --------------------------------------------------------------------\n# ASSAYS\n# --------------------------------------------------------------------\n\n\'\'\'\nList of assays\n\'\'\'\ndb.define_table(\'assay\',\n    auth.signature,\n    Field(\'assayname\', type=\'string\'),\n    Field(\'assaydescription\', type=\'text\'),\n    Field(\'pubchecbioassay_id\'),\n    )\n\n\'\'\'\nMany to many table relationship: Assay and Extract\n\'\'\'\ndb.define_table(\'extract_assay\',\n    auth.signature,\n    Field(\'extract_id\', \'reference extract\'),\n    Field(\'compound_id\', \'reference compound\'),\n    Field(\'compoundamount\', type=\'double\'),    \n    Field(\'inhibition\', type=\'double\'),\n    Field(\'activity\', type=\'double\'),\n    Field(\'cytotoxicity\', type=\'double\'),\n    Field(\'sideEffects\', type=\'text\'),\n    )\n\n\'\'\'\nMany to many table relationship: Docs and Assay\n\'\'\'\ndb.define_table(\'assay_doc\',\n    auth.signature,\n    Field(\'assay_id\', \'reference assay\'),\n    Field(\'doc_id\', \'reference doc\'),\n    )\n\n\'\'\'\nList of assay targets\n\'\'\'\ndb.define_table(\'target\',\n    auth.signature,\n    Field(\'targetname\', type=\'string\'),\n    )\n\n\'\'\'\nMany to many table relationship: Target and Assay\n\'\'\'\ndb.define_table(\'assay_target\',\n    auth.signature,\n    Field(\'assay_id\', \'reference assay\'),\n    Field(\'target_id\', \'reference target\'),\n    )\n\n\n\n## after defining tables, uncomment below to enable auditing\n#~ auth.enable_record_versioning(db)\n\n\ndb.define_table(\'borrame\',\n    Field(\'lista\', type=\'list:string\')\n    )\n'
p7
sS'snapshot'
p8
(dp9
sS'traceback'
p10
S'Traceback (most recent call last):\n  File "/home/mjl/Dropbox/FITOMEDICINA/web2py/gluon/restricted.py", line 227, in restricted\n    exec ccode in environment\n  File "/home/mjl/Dropbox/FITOMEDICINA/web2py/applications/naturar/models/db.py", line 38, in <module>\n    db = DAL("postgres://fito:123456@localhost/naturardb", migrate=True)\n  File "/home/mjl/Dropbox/FITOMEDICINA/web2py/gluon/packages/dal/pydal/base.py", line 174, in __call__\n    obj = super(MetaDAL, cls).__call__(*args, **kwargs)\n  File "/home/mjl/Dropbox/FITOMEDICINA/web2py/gluon/packages/dal/pydal/base.py", line 473, in __init__\n    "Failure to connect, tried %d times:\\n%s" % (attempts, tb)\nRuntimeError: Failure to connect, tried 5 times:\nTraceback (most recent call last):\n  File "/home/mjl/Dropbox/FITOMEDICINA/web2py/gluon/packages/dal/pydal/base.py", line 446, in __init__\n    self._adapter = ADAPTERS[self._dbname](**kwargs)\n  File "/home/mjl/Dropbox/FITOMEDICINA/web2py/gluon/packages/dal/pydal/adapters/base.py", line 60, in __call__\n    obj = super(AdapterMeta, cls).__call__(*args, **kwargs)\n  File "/home/mjl/Dropbox/FITOMEDICINA/web2py/gluon/packages/dal/pydal/adapters/postgres.py", line 155, in __init__\n    self.reconnect()\n  File "/home/mjl/Dropbox/FITOMEDICINA/web2py/gluon/packages/dal/pydal/connection.py", line 104, in reconnect\n    self.connection = f()\n  File "/home/mjl/Dropbox/FITOMEDICINA/web2py/gluon/packages/dal/pydal/adapters/postgres.py", line 152, in connector\n    return self.driver.connect(**driver_args)\n  File "/usr/lib/python2.7/dist-packages/psycopg2/__init__.py", line 179, in connect\n    connection_factory=connection_factory, async=async)\nOperationalError: FATAL:  password authentication failed for user "fito"\nFATAL:  password authentication failed for user "fito"\n\n\n'
p11
s.