(dp1
S'output'
p2
S"<type 'exceptions.AttributeError'> 'str' object has no attribute 'value'"
p3
sS'layer'
p4
S'/home/mjl/Dropbox/FITOMEDICINA/web2py/applications/naturar/controllers/compuestos.py'
p5
sS'code'
p6
S'# -*- coding: utf-8 -*-\n# this file is released under public domain and you can use without limitations\n\n#########################################################################\n## This is a sample controller\n## - index is the default action of any application\n## - user is required for authentication and authorization\n## - download is for downloading files uploaded in the db (does streaming)\n#########################################################################\nfrom rdkit import Chem\nfrom rdkit.Chem import Draw\nfrom rdkit.Chem import AllChem\nimport os.path \n\n#~ def list_molecules():\n    #~ """\n    #~ show compound like a image grid\n    #~ """\n    #~ if len(request.args): page=int(request.args[0])\n    #~ else: page=0\n    #~ items_per_page=5\n    #~ limitby=(page*items_per_page,(page+1)*items_per_page+1)\n    #~ rows=db().select(db.compound.ALL,limitby=limitby)\n    #~ return dict(rows=rows,page=page,items_per_page=items_per_page)\n\n\ndef list_molecules2():\n    grid = SQLFORM.smartgrid(db.compound, paginate=5)\n    return locals()\n\n#~ @auth.requires_membership(\'managers\')\ndef buscar():\n    """\n    action to show a list of compounds\n    """\n    imagewidth = 70\n    imageheight = 70\n    request.is_local =False\n    #extract of http://stackoverflow.com/questions/21447804/web2py-sqlform-grid-edit-page\n    db.compound.id.readable = False\n    db.compound.id.writeable = False\n \n\n    form = SQLFORM.grid(\n        query=db.compound,\n        formname="compound",\n        editable = auth.has_membership(\'managers\'),\n        deletable = auth.has_membership(\'managers\'),\n        buttons_placement = \'left\',\n        paginate = 5,\n        searchable= dict(smiles=True, extract=False),\n        links=[dict(header=T(\'Image\'), body = lambda row: \n        DIV(A(IMG(_src=URL(\'static\',row.imagepath), \n        _width=imagewidth, _height=imageheight),_href="localhost"),_class="img-zoom"))])\n        \n   \n   \n    #if "view" in request.args(0)request.env.request_uri:\n    #~ try:\n    if request.args(0):\n        if "view" in request.args(0):\n            record_id = form.view_form.record_id \n            # Properties selection\n            table = db(db.compound_property.compound_id==record_id).select(\n                db.compoundproperty.molecular_weight,\n                db.compoundproperty.molecular_formula,\n                db.compoundproperty.molecular_volume,\n                db.compoundproperty.smiles,\n                db.compoundproperty.clogp,\n                db.compoundproperty.xlogp,\n                db.compoundproperty.tpsa,\n                db.compoundproperty.hbd,\n                db.compoundproperty.hba,\n                db.compoundproperty.num_rotatables_bonds,\n                db.compoundproperty.aromatic_rings,\n                db.compoundproperty.num_n,\n                db.compoundproperty.num_o,\n                db.compoundproperty.num_s,\n                db.compoundproperty.num_ro5_violations,\n            )        \n            properties = rows_transpose(table)\n            \n            # Docs selection\n            docs_id = db(db.compound.id==record_id).select(db.compound.docs)\n            try:\n                table = db(db.doc.id.belongs(docs_id.first().docs)).select(\n                    db.doc.journal,\n                    db.doc.year,\n                    db.doc.volume,\n                    db.doc.issue,\n                    db.doc.first_page,\n                    db.doc.last_page,\n                    db.doc.doi,\n                    db.doc.pubmed_id,\n                    db.doc.title,\n                    db.doc.doc_type,\n                    db.doc.authors,\n                    db.doc.abstract,\n                )            \n                docs = rows_transpose(table)\n            except:\n                docs=None\n\n    else:\n        properties = ""\n        docs = ""\n    \n    \n    print doi2doc("10.1016/j.molstruc.2014.10.054")[\'message\'][\'author\']\n   \n    return dict(form=form, properties=properties, docs=docs)\n    \ndef buscar2():\n    """\n    action to show a list of compounds\n    """\n    imagewidth = 70\n    imageheight = 70\n    request.is_local =False\n    #extract of http://stackoverflow.com/questions/21447804/web2py-sqlform-grid-edit-page\n    db.compound.id.readable = False\n    db.compound.id.writeable = False\n \n\n    form = SQLFORM.smartgrid(db.compound,\n        #~ left=db.extract_record.extract_name(db.extract_record.id==db.compound.extract),\n        editable = auth.has_membership(\'managers\'),\n        deletable = auth.has_membership(\'managers\'),\n        buttons_placement = \'left\',\n        paginate = 5,\n        searchable= dict(smiles=True, extract=False),\n        #~ links=[dict(header=T(\'Image\'), body = lambda row: \n        #~ DIV(A(IMG(_src=URL(\'static\',row.imagepath), \n        #~ _width=imagewidth, _height=imageheight),_href="localhost"),_class="img-zoom"))]\n        )\n               \n\n    print calculate_descriptors("NN")\n   \n    return dict(form=form)    \n    \n\ndef custom_search():\n    \'\'\'\n    Implements SQLFORM.grid custom search \n        WITHOUT specifying a custom search_widget,\n            and so needing to read & understand the clever web2py implementation source code.\n    The custom_search.html view contains the EASIER TO UNDERSTAND customization code.\n    The technique:\n        1. Make the grid\'s Standard Search Input hidden.\n        2. Define Custom Search Input elements \n            with onchange events that \n                send their values to the to the hidden Standard Search Input.\n    \'\'\'\n    query=((db.compound.id > 0))\n    fields = (db.compound.id, \n        db.compound.smiles, \n        db.compound.name, \n        )\n \n    headers = {\'compound.id\':   \'ID\',\n           \'compound.smiles\': \'Last Name\',\n           \'db.compound.name\': \'Primary Phone\',\n           }    \n    init_sort_order=[db.compound.name]   \n \n    grid = SQLFORM.grid(query=query, \n        fields=fields, \n        headers=headers, \n        orderby=init_sort_order,\n        searchable=True,  \n        user_signature=False, \n        create=True, deletable=False, editable=True, maxtextlength=100, paginate=25)\n \n    return dict(grid=grid)  \n\n\n\n\ndef manage_packages():\n    if request.args(0) == \'new\' and request.args(1) == \'compound\':\n\n        # (1) Get available docs\n        docs = [(r.id, r.title) for r in db(db.doc).select()]\n        print docs\n\n        # (2) Build the form\n        form = SQLFORM.factory(\n            db.compound,\n            Field(\'doc\',\n                requires=IS_IN_SET(docs, multiple=True)\n            )\n        )\n\n        # (3) Validate form data\n        if form.process().accepted:\n\n            # (4) Insert compound\n            compound_id = db.compound.insert(\n                **db.compound._filter_fields(form.vars))\n\n            if compound_id and form.vars.docs:\n\n                # (5) Insert component package associations\n                for doc_id in form.vars.docs:\n                    existing_doc = db.doc(doc_id)\n\n                    if existing_doc:\n                        db.r_compound_doc.insert(\n                            compound_id=compound_id,\n                            doc_id=existing_doc\n                        )\n\n                response.flash = \'Package has been created successfully.\'\n\n        content = form\n    else:\n        content = SQLFORM.grid(db.compound)\n\n    return dict(content=content)\n\n\n\ndef two_forms():\n    \n    form1 = FORM(INPUT(_name=\'form_one\', requires=IS_NOT_EMPTY()),\n               INPUT(_type=\'submit\'))\n    form2 = FORM(INPUT(_name=\'form_two\', requires=IS_NOT_EMPTY()),\n               INPUT(_type=\'submit\'))\n    form3 = SQLFORM.grid(query=db.compound,\n        formname="compound_doc")\n\n    if form1.process(formname=\'form_one\').accepted:\n        response.flash = \'form one accepted\'\n    if form2.process(formname=\'form_two\').accepted:\n        response.flash = \'form two accepted\'\n    return dict(form1=form1, form2=form2, form3=form3)\n    \n    \ndef upload():\n     # (1) Get available components\n    compounds = [(r.id, r.compoundname) for r in db(db.compound).select()]\n\n    # (2) Build the form\n    form = SQLFORM.factory(\n        db.classification,\n        Field(\n            \'compounds\',\n            requires=IS_IN_SET(compounds, multiple=True)\n        )\n    )\n    print compounds\n\n    # (3) Validate form data\n    if form.process().accepted:\n\n        # (4) Insert package\n        classification_id = db.classification.insert(\n            **db.classification._filter_fields(form.vars))\n\n        if classification_id and form.vars.compounds:\n\n            # (5) Insert component package associations\n            for compound_id in form.vars.compounds:\n                existing_compound = db.compound(compound_id)\n\n                if existing_compound:\n                    db.compound_classification.insert(\n                        classification_id=classification_id,\n                        compound_id=existing_compound\n                    )\n\n            response.flash = \'Package has been created successfully.\'\n\n    content = form\n    #~ else:\n        #~ content = SQLFORM.grid(db.classification)\n\n    return dict(content=content)\n    \ndef upload2():\n     # (1) Get available classifications\n    classifications = [(r.id, r.classificationname) for r in db(db.classification).select()]\n    chemicalclasses = [(r.id, r.classname_en) for r in db(db.chemicalclass).select()]\n    #~ extracts = [(r.id, r.extractname) for r in db(db.chemicalclass).select()]\n\n    # (2) Build the form\n    form = SQLFORM.factory(\n        db.compound,\n        Field(\'classifications\',\n            requires=IS_IN_SET(classifications, multiple=True)),\n        Field(\'chemicalclasses\',\n            requires=IS_IN_SET(chemicalclasses, multiple=True)),\n        Field(\'synonyms\', type=\'text\', requires=IS_NOT_EMPTY()),\n    )\n    # (3) Validate form data\n    if form.process().accepted:\n\n        # (4) Insert compound\n        compound_id = db.compound.insert(\n            **db.compound._filter_fields(form.vars))\n        \n        # (5) Insert compound_classification associations\n        if compound_id and form.vars.classifications:\n            for classification_id in form.vars.classifications:\n                existing_classification = db.classification(classification_id)\n                if existing_classification:\n                    db.compound_classification.insert(\n                        compound_id=compound_id,\n                        classification_id=existing_classification)\n                        \n        # (6) Insert compound_chemicalclass associations\n            \n        if compound_id and form.vars.chemicalclasses:\n            for chemicalclass_id in form.vars.chemicalclasses:\n                existing_chemicalclass = db.chemicalclass(chemicalclass_id)\n                if existing_chemicalclass:\n                    db.compound_chemicalclass.insert(\n                        compound_id=compound_id,\n                        chemicalclass_id=existing_chemicalclass)\n                        \n        # (7) Insert synonyms\n        if compound_id and form.vars.synonyms:\n            synonymlist = form.vars.synonyms.split(\'\\n\')\n            for synonym in synonymlist:\n                db.synonym.insert(\n                    compound_id=compound_id,\n                    synonymname=str(synonym).strip(\'\\r\'))\n                        \n\n        response.flash = T(\'Compound has been uploaded successfully.\')\n\n    content = form\n    #~ else:\n        #~ content = SQLFORM.grid(db.compound)\n\n    return dict(content=content)\n\n\n\n\ndef upload_molprocessing(form):\n        print "valor molstructure"\n        print form.vars.molstructure + "hola"\n        print type(form.vars.molstructure)\n        if form.vars.molstructure != None or form.vars.molstructure.strip() != "":\n            #check if file is a mol file in correct format\n            if is_valid_ctab(form.vars.molstructure.value) == True: \n                pass\n            #~ inputmolrdkit = Chem.MolFromMolFile(form.vars.molstructure.file)\n            #~ inputmolfile = os.path.join(request.folder,\'static/temp/\') + form.vars.molstructure\n            else:\n                form.errors.molstructure = T(\'You must introduce a mol structure file with correct format.\')\n        elif form.vars.isosmiles:\n            if is_valid_smiles(form.vars.isosmiles)==True:\n                pass\n            else: \n                form.errors.isosmiles = T(\'SMILES has an error, please check\')\n        else:\n            form.errors.isosmiles = T(\'You must introduce an structure using an smiles or uploading a file\')  \n\ndef upload3():\n     # (1) Get available classifications\n    classifications = [(r.id, r.classificationname) for r in db(db.classification).select()]\n    chemicalclasses = [(r.id, r.classname_en) for r in db(db.chemicalclass).select()]\n    #~ extracts = [(r.id, r.extractname) for r in db(db.chemicalclass).select()]\n\n    # (2) Build the form\n    form = SQLFORM.factory(\n        Field(\'molstructure\', type=\'upload\', uploadfolder=os.path.join(request.folder,\'static/temp\')), \n        #~ requires = IS_UPLOAD_FILENAME(extension=\'mol\')),\n        db.compound,\n        Field(\'classifications\',\n            requires=IS_IN_SET(classifications, multiple=True)),\n        Field(\'chemicalclasses\',\n            requires=IS_IN_SET(chemicalclasses, multiple=True)),\n        #~ Field(\'inputselector\',requires=IS_IN_SET([\'Smile\',\'Draw\',\'File\']),widget=SQLFORM.widgets.radio.widget),\n        Field(\'synonyms\', type=\'list:string\', requires=IS_NOT_EMPTY()),\n    )\n    \n    # (3) Validate form data\n    if form.process(onvalidation=upload_molprocessing).accepted:\n\n        # (4) Insert compound\n        compound_id = db.compound.insert(\n            **db.compound._filter_fields(form.vars))\n        \n        # (5) Insert compound_classification associations\n        if compound_id and form.vars.classifications:\n            for classification_id in form.vars.classifications:\n                existing_classification = db.classification(classification_id)\n                if existing_classification:\n                    db.compound_classification.insert(\n                        compound_id=compound_id,\n                        classification_id=existing_classification)\n                        \n        # (6) Insert compound_chemicalclass associations\n        if compound_id and form.vars.chemicalclasses:\n            for chemicalclass_id in form.vars.chemicalclasses:\n                existing_chemicalclass = db.chemicalclass(chemicalclass_id)\n                if existing_chemicalclass:\n                    db.compound_chemicalclass.insert(\n                        compound_id=compound_id,\n                        chemicalclass_id=existing_chemicalclass)\n                        \n        # (7) Insert synonyms\n        if compound_id and form.vars.synonyms:\n            synonymlist = form.vars.synonyms\n            for synonym in synonymlist:\n                db.synonym.insert(\n                    compound_id=compound_id,\n                    synonymname=str(synonym).strip(\'\\r\'))\n        \n        # (8) Insert structure\n        if compound_id and form.vars.molstructure:\n            filename = os.path.join(request.folder,\'static/temp/\') + form.vars.molstructure\n            mol_data = file(filename,\'r\').read()\n            db.executesql("insert into structure (molstructure,compound_id) VALUES (mol_from_ctab(\'%s\'::cstring), \'%i\');"%(mol_data,compound_id))\n        elif compound_id and form.vars.isosmiles:\n            db.executesql("insert into structure (molstructure,compound_id) VALUES (mol_from_smiles(\'%s\'::cstring), \'%i\');"%(form.vars.isosmiles,compound_id))\n            \n        \n        #~ inputmolfile = os.path.join(request.folder,\'static/temp/\') + form.vars.molstructure\n        #~ inputmolrdkit = Chem.MolFromMolFile(inputmolfile)\n        #~ if inputmolrdkit == None:\n        #~ print inputmolrdkit\n        response.flash = T(\'Compound has been uploaded successfully.\')\n\n\n    content = form\n    #~ else:\n        #~ content = SQLFORM.grid(db.compound)\n\n    return dict(content=content)\n\nresponse._vars=response._caller(upload3)\n'
p7
sS'snapshot'
p8
(dp9
S'exception'
p10
(dp11
S'__hash__'
p12
S"<method-wrapper '__hash__' of exceptions.AttributeError object>"
p13
sS'__setattr__'
p14
S"<method-wrapper '__setattr__' of exceptions.AttributeError object>"
p15
sS'__reduce_ex__'
p16
S'<built-in method __reduce_ex__ of exceptions.AttributeError object>'
p17
sS'__getslice__'
p18
S"<method-wrapper '__getslice__' of exceptions.AttributeError object>"
p19
sS'__getitem__'
p20
S"<method-wrapper '__getitem__' of exceptions.AttributeError object>"
p21
sS'__setstate__'
p22
S'<built-in method __setstate__ of exceptions.AttributeError object>'
p23
sS'args'
p24
S'("\'str\' object has no attribute \'value\'",)'
p25
sS'__reduce__'
p26
S'<built-in method __reduce__ of exceptions.AttributeError object>'
p27
sS'__str__'
p28
S"<method-wrapper '__str__' of exceptions.AttributeError object>"
p29
sS'__format__'
p30
S'<built-in method __format__ of exceptions.AttributeError object>'
p31
sS'__getattribute__'
p32
S"<method-wrapper '__getattribute__' of exceptions.AttributeError object>"
p33
sS'__class__'
p34
S"<type 'exceptions.AttributeError'>"
p35
sS'__unicode__'
p36
S'<built-in method __unicode__ of exceptions.AttributeError object>'
p37
sS'__delattr__'
p38
S"<method-wrapper '__delattr__' of exceptions.AttributeError object>"
p39
sS'__subclasshook__'
p40
S'<built-in method __subclasshook__ of type object>'
p41
sS'__repr__'
p42
S"<method-wrapper '__repr__' of exceptions.AttributeError object>"
p43
sS'__dict__'
p44
S'{}'
p45
sS'__sizeof__'
p46
S'<built-in method __sizeof__ of exceptions.AttributeError object>'
p47
sS'__doc__'
p48
S"'Attribute not found.'"
p49
sS'__init__'
p50
S"<method-wrapper '__init__' of exceptions.AttributeError object>"
p51
sS'__new__'
p52
S'<built-in method __new__ of type object>'
p53
ssS'evalue'
p54
S"'str' object has no attribute 'value'"
p55
sS'request'
p56
cgluon.html
XML_unpickle
p57
(S's\x05f\x00\x00<div><table><tr><td style="font-weight:bold;vertical-align:top;">ajax</td><td style="vertical-align:top;">:</td><td><div>False</div></td></tr><tr><td style="font-weight:bold;vertical-align:top;">application</td><td style="vertical-align:top;">:</td><td><div>naturar</div></td></tr><tr><td style="font-weight:bold;vertical-align:top;">args</td><td style="vertical-align:top;">:</td><td><div><table></table></div></td></tr><tr><td style="font-weight:bold;vertical-align:top;">cid</td><td style="vertical-align:top;">:</td><td><div>None</div></td></tr><tr><td style="font-weight:bold;vertical-align:top;">client</td><td style="vertical-align:top;">:</td><td><div>127.0.0.1</div></td></tr><tr><td style="font-weight:bold;vertical-align:top;">controller</td><td style="vertical-align:top;">:</td><td><div>compuestos</div></td></tr><tr><td style="font-weight:bold;vertical-align:top;">cookies</td><td style="vertical-align:top;">:</td><td><div><table><tr><td style="font-weight:bold;vertical-align:top;">session_id_admin</td><td style="vertical-align:top;">:</td><td><div>127.0.0.1-551a1cec-da5f-44ad-b923-1ecf5ac0bde4<table><tr><td style="font-weight:bold;vertical-align:top;">comment</td><td style="vertical-align:top;">:</td><td><div></div></td></tr><tr><td style="font-weight:bold;vertical-align:top;">domain</td><td style="vertical-align:top;">:</td><td><div></div></td></tr><tr><td style="font-weight:bold;vertical-align:top;">expires</td><td style="vertical-align:top;">:</td><td><div></div></td></tr><tr><td style="font-weight:bold;vertical-align:top;">httponly</td><td style="vertical-align:top;">:</td><td><div></div></td></tr><tr><td style="font-weight:bold;vertical-align:top;">max-age</td><td style="vertical-align:top;">:</td><td><div></div></td></tr><tr><td style="font-weight:bold;vertical-align:top;">path</td><td style="vertical-align:top;">:</td><td><div></div></td></tr><tr><td style="font-weight:bold;vertical-align:top;">secure</td><td style="vertical-align:top;">:</td><td><div></div></td></tr><tr><td style="font-weight:bold;vertical-align:top;">version</td><td style="vertical-align:top;">:</td><td><div></div></td></tr></table></div></td></tr><tr><td style="font-weight:bold;vertical-align:top;">session_id_admin2</td><td style="vertical-align:top;">:</td><td><div>127.0.0.1-00c52e21-cd19-4bb6-b6c8-ba0d929431ac<table><tr><td style="font-weight:bold;vertical-align:top;">comment</td><td style="vertical-align:top;">:</td><td><div></div></td></tr><tr><td style="font-weight:bold;vertical-align:top;">domain</td><td style="vertical-align:top;">:</td><td><div></div></td></tr><tr><td style="font-weight:bold;vertical-align:top;">expires</td><td style="vertical-align:top;">:</td><td><div></div></td></tr><tr><td style="font-weight:bold;vertical-align:top;">httponly</td><td style="vertical-align:top;">:</td><td><div></div></td></tr><tr><td style="font-weight:bold;vertical-align:top;">max-age</td><td style="vertical-align:top;">:</td><td><div></div></td></tr><tr><td style="font-weight:bold;vertical-align:top;">path</td><td style="vertical-align:top;">:</td><td><div></div></td></tr><tr><td style="font-weight:bold;vertical-align:top;">secure</td><td style="vertical-align:top;">:</td><td><div></div></td></tr><tr><td style="font-weight:bold;vertical-align:top;">version</td><td style="vertical-align:top;">:</td><td><div></div></td></tr></table></div></td></tr><tr><td style="font-weight:bold;vertical-align:top;">session_id_naturar</td><td style="vertical-align:top;">:</td><td><div>127.0.0.1-6319cafa-3f37-42c2-81d6-b1a3eb4e77d4<table><tr><td style="font-weight:bold;vertical-align:top;">comment</td><td style="vertical-align:top;">:</td><td><div></div></td></tr><tr><td style="font-weight:bold;vertical-align:top;">domain</td><td style="vertical-align:top;">:</td><td><div></div></td></tr><tr><td style="font-weight:bold;vertical-align:top;">expires</td><td style="vertical-align:top;">:</td><td><div></div></td></tr><tr><td style="font-weight:bold;vertical-align:top;">httponly</td><td style="vertical-align:top;">:</td><td><div></div></td></tr><tr><td style="font-weight:bold;vertical-align:top;">max-age</td><td style="vertical-align:top;">:</td><td><div></div></td></tr><tr><td style="font-weight:bold;vertical-align:top;">path</td><td style="vertical-align:top;">:</td><td><div></div></td></tr><tr><td style="font-weight:bold;vertical-align:top;">secure</td><td style="vertical-align:top;">:</td><td><div></div></td></tr><tr><td style="font-weight:bold;vertical-align:top;">version</td><td style="vertical-align:top;">:</td><td><div></div></td></tr></table></div></td></tr><tr><td style="font-weight:bold;vertical-align:top;">session_id_welcome</td><td style="vertical-align:top;">:</td><td><div>127.0.0.1-7cce0eac-acb6-411e-a5ff-f513181db121<table><tr><td style="font-weight:bold;vertical-align:top;">comment</td><td style="vertical-align:top;">:</td><td><div></div></td></tr><tr><td style="font-weight:bold;vertical-align:top;">domain</td><td style="vertical-align:top;">:</td><td><div></div></td></tr><tr><td style="font-weight:bold;vertical-align:top;">expires</td><td style="vertical-align:top;">:</td><td><div></div></td></tr><tr><td style="font-weight:bold;vertical-align:top;">httponly</td><td style="vertical-align:top;">:</td><td><div></div></td></tr><tr><td style="font-weight:bold;vertical-align:top;">max-age</td><td style="vertical-align:top;">:</td><td><div></div></td></tr><tr><td style="font-weight:bold;vertical-align:top;">path</td><td style="vertical-align:top;">:</td><td><div></div></td></tr><tr><td style="font-weight:bold;vertical-align:top;">secure</td><td style="vertical-align:top;">:</td><td><div></div></td></tr><tr><td style="font-weight:bold;vertical-align:top;">version</td><td style="vertical-align:top;">:</td><td><div></div></td></tr></table></div></td></tr></table></div></td></tr><tr><td style="font-weight:bold;vertical-align:top;">env</td><td style="vertical-align:top;">:</td><td><div><table><tr><td style="font-weight:bold;vertical-align:top;">CONTENT_LENGTH</td><td style="vertical-align:top;">:</td><td><div>1205</div></td></tr><tr><td style="font-weight:bold;vertical-align:top;">CONTENT_TYPE</td><td style="vertical-align:top;">:</td><td><div>multipart/form-data; boundary=---------------------------114306586612587012761559420395</div></td></tr><tr><td style="font-weight:bold;vertical-align:top;">HTTP_ACCEPT</td><td style="vertical-align:top;">:</td><td><div>text/html,application/xhtml+xml,application/xml;q=0.9,*/*;q=0.8</div></td></tr><tr><td style="font-weight:bold;vertical-align:top;">HTTP_ACCEPT_ENCODING</td><td style="vertical-align:top;">:</td><td><div>gzip, deflate</div></td></tr><tr><td style="font-weight:bold;vertical-align:top;">HTTP_ACCEPT_LANGUAGE</td><td style="vertical-align:top;">:</td><td><div>en-US,en;q=0.5</div></td></tr><tr><td style="font-weight:bold;vertical-align:top;">HTTP_CONNECTION</td><td style="vertical-align:top;">:</td><td><div>keep-alive</div></td></tr><tr><td style="font-weight:bold;vertical-align:top;">HTTP_CONTENT_LENGTH</td><td style="vertical-align:top;">:</td><td><div>1205</div></td></tr><tr><td style="font-weight:bold;vertical-align:top;">HTTP_CONTENT_TYPE</td><td style="vertical-align:top;">:</td><td><div>multipart/form-data; boundary=---------------------------114306586612587012761559420395</div></td></tr><tr><td style="font-weight:bold;vertical-align:top;">HTTP_COOKIE</td><td style="vertical-align:top;">:</td><td><div>session_id_welcome=127.0.0.1-7cce0eac-acb6-411e-a5ff-f513181db121; session_id_admin=127.0.0.1-551a1cec-da5f-44ad-b923-1ecf5ac0bde4; session_id_naturar=127.0.0.1-6319cafa-3f37-42c2-81d6-b1a3eb4e77d4; session_id_admin2=127.0.0.1-00c52e21-cd19-4bb6-b6c8-ba0d929431ac</div></td></tr><tr><td style="font-weight:bold;vertical-align:top;">HTTP_HOST</td><td style="vertical-align:top;">:</td><td><div>127.0.0.1:8000</div></td></tr><tr><td style="font-weight:bold;vertical-align:top;">HTTP_REFERER</td><td style="vertical-align:top;">:</td><td><div>http://127.0.0.1:8000/naturar/compuestos/upload3</div></td></tr><tr><td style="font-weight:bold;vertical-align:top;">HTTP_USER_AGENT</td><td style="vertical-align:top;">:</td><td><div>Mozilla/5.0 (X11; Ubuntu; Linux x86_64; rv:45.0) Gecko/20100101 Firefox/45.0</div></td></tr><tr><td style="font-weight:bold;vertical-align:top;">PATH_INFO</td><td style="vertical-align:top;">:</td><td><div>/naturar/compuestos/upload3</div></td></tr><tr><td style="font-weight:bold;vertical-align:top;">QUERY_STRING</td><td style="vertical-align:top;">:</td><td><div></div></td></tr><tr><td style="font-weight:bold;vertical-align:top;">REMOTE_ADDR</td><td style="vertical-align:top;">:</td><td><div>127.0.0.1</div></td></tr><tr><td style="font-weight:bold;vertical-align:top;">REMOTE_PORT</td><td style="vertical-align:top;">:</td><td><div>36065</div></td></tr><tr><td style="font-weight:bold;vertical-align:top;">REQUEST_METHOD</td><td style="vertical-align:top;">:</td><td><div>POST</div></td></tr><tr><td style="font-weight:bold;vertical-align:top;">SCRIPT_NAME</td><td style="vertical-align:top;">:</td><td><div></div></td></tr><tr><td style="font-weight:bold;vertical-align:top;">SERVER_NAME</td><td style="vertical-align:top;">:</td><td><div>Atomus</div></td></tr><tr><td style="font-weight:bold;vertical-align:top;">SERVER_PORT</td><td style="vertical-align:top;">:</td><td><div>8000</div></td></tr><tr><td style="font-weight:bold;vertical-align:top;">SERVER_PROTOCOL</td><td style="vertical-align:top;">:</td><td><div>HTTP/1.1</div></td></tr><tr><td style="font-weight:bold;vertical-align:top;">SERVER_SOFTWARE</td><td style="vertical-align:top;">:</td><td><div>Rocket 1.2.6</div></td></tr><tr><td style="font-weight:bold;vertical-align:top;">app_folders</td><td style="vertical-align:top;">:</td><td><div>set([&#x27;/home/mjl/Dropbox/FITOMEDICINA/web2py/applications/admin/&#x27;, &#x27;/home/mjl/Dropbox/FITOMEDICINA/web2py/applications/welcome/&#x27;, &#x27;/home/mjl/Dropbox/FITOMEDICINA/web2py/applications/naturar/&#x27;, &#x27;/home/mjl/Dropbox/FITOMEDICINA/web2py/applications/admin2/&#x27;])</div></td></tr><tr><td style="font-weight:bold;vertical-align:top;">applications_parent</td><td style="vertical-align:top;">:</td><td><div>/home/mjl/Dropbox/FITOMEDICINA/web2py</div></td></tr><tr><td style="font-weight:bold;vertical-align:top;">cmd_args</td><td style="vertical-align:top;">:</td><td><div><table></table></div></td></tr><tr><td style="font-weight:bold;vertical-align:top;">cmd_options</td><td style="vertical-align:top;">:</td><td><div>&lt;Values at 0x7f3e7c6e8998: {&#x27;verbose&#x27;: False, &#x27;ip&#x27;: &#x27;127.0.0.1&#x27;, &#x27;debuglevel&#x27;: 30, &#x27;with_scheduler&#x27;: False, &#x27;shutdown_timeout&#x27;: 5, &#x27;taskbar&#x27;: False, &#x27;with_coverage&#x27;: False, &#x27;pid_filename&#x27;: &#x27;httpserver.pid&#x27;, &#x27;maxthreads&#x27;: None, &#x27;softcron&#x27;: False, &#x27;server_name&#x27;: &#x27;Atomus&#x27;, &#x27;bpython&#x27;: False, &#x27;nogui&#x27;: False, &#x27;port&#x27;: 8000, &#x27;print_errors&#x27;: False, &#x27;extcron&#x27;: False, &#x27;runcron&#x27;: False, &#x27;run_system_tests&#x27;: False, &#x27;test&#x27;: None, &#x27;folder&#x27;: &#x27;/home/mjl/Dropbox/FITOMEDICINA/web2py&#x27;, &#x27;config&#x27;: &#x27;&#x27;, &#x27;minthreads&#x27;: None, &#x27;shell&#x27;: None, &#x27;run&#x27;: &#x27;&#x27;, &#x27;log_filename&#x27;: &#x27;httpserver.log&#x27;, &#x27;profiler_dir&#x27;: None, &#x27;args&#x27;: [&#x27;&#x27;], &#x27;socket_timeout&#x27;: 5, &#x27;ssl_ca_certificate&#x27;: None, &#x27;scheduler&#x27;: None, &#x27;interfaces&#x27;: None, &#x27;ssl_private_key&#x27;: &#x27;&#x27;, &#x27;gae&#x27;: None, &#x27;password&#x27;: &#x27;******&#x27;, &#x27;request_queue_size&#x27;: 5, &#x27;ssl_certificate&#x27;: &#x27;&#x27;, &#x27;cronjob&#x27;: False, &#x27;numthreads&#x27;: None, &#x27;quiet&#x27;: False, &#x27;import_models&#x27;: False, &#x27;timeout&#x27;: 10, &#x27;plain&#x27;: False, &#x27;nobanner&#x27;: False}&gt;</div></td></tr><tr><td style="font-weight:bold;vertical-align:top;">content_length</td><td style="vertical-align:top;">:</td><td><div>1205</div></td></tr><tr><td style="font-weight:bold;vertical-align:top;">content_type</td><td style="vertical-align:top;">:</td><td><div>multipart/form-data; boundary=---------------------------114306586612587012761559420395</div></td></tr><tr><td style="font-weight:bold;vertical-align:top;">db_sessions</td><td style="vertical-align:top;">:</td><td><div>set([])</div></td></tr><tr><td style="font-weight:bold;vertical-align:top;">debugging</td><td style="vertical-align:top;">:</td><td><div>True</div></td></tr><tr><td style="font-weight:bold;vertical-align:top;">gluon_parent</td><td style="vertical-align:top;">:</td><td><div>/home/mjl/Dropbox/FITOMEDICINA/web2py</div></td></tr><tr><td style="font-weight:bold;vertical-align:top;">http_accept</td><td style="vertical-align:top;">:</td><td><div>text/html,application/xhtml+xml,application/xml;q=0.9,*/*;q=0.8</div></td></tr><tr><td style="font-weight:bold;vertical-align:top;">http_accept_encoding</td><td style="vertical-align:top;">:</td><td><div>gzip, deflate</div></td></tr><tr><td style="font-weight:bold;vertical-align:top;">http_accept_language</td><td style="vertical-align:top;">:</td><td><div>en-US,en;q=0.5</div></td></tr><tr><td style="font-weight:bold;vertical-align:top;">http_connection</td><td style="vertical-align:top;">:</td><td><div>keep-alive</div></td></tr><tr><td style="font-weight:bold;vertical-align:top;">http_content_length</td><td style="vertical-align:top;">:</td><td><div>1205</div></td></tr><tr><td style="font-weight:bold;vertical-align:top;">http_content_type</td><td style="vertical-align:top;">:</td><td><div>multipart/form-data; boundary=---------------------------114306586612587012761559420395</div></td></tr><tr><td style="font-weight:bold;vertical-align:top;">http_cookie</td><td style="vertical-align:top;">:</td><td><div>session_id_welcome=127.0.0.1-7cce0eac-acb6-411e-a5ff-f513181db121; session_id_admin=127.0.0.1-551a1cec-da5f-44ad-b923-1ecf5ac0bde4; session_id_naturar=127.0.0.1-6319cafa-3f37-42c2-81d6-b1a3eb4e77d4; session_id_admin2=127.0.0.1-00c52e21-cd19-4bb6-b6c8-ba0d929431ac</div></td></tr><tr><td style="font-weight:bold;vertical-align:top;">http_host</td><td style="vertical-align:top;">:</td><td><div>127.0.0.1:8000</div></td></tr><tr><td style="font-weight:bold;vertical-align:top;">http_referer</td><td style="vertical-align:top;">:</td><td><div>http://127.0.0.1:8000/naturar/compuestos/upload3</div></td></tr><tr><td style="font-weight:bold;vertical-align:top;">http_user_agent</td><td style="vertical-align:top;">:</td><td><div>Mozilla/5.0 (X11; Ubuntu; Linux x86_64; rv:45.0) Gecko/20100101 Firefox/45.0</div></td></tr><tr><td style="font-weight:bold;vertical-align:top;">is_jython</td><td style="vertical-align:top;">:</td><td><div>False</div></td></tr><tr><td style="font-weight:bold;vertical-align:top;">is_pypy</td><td style="vertical-align:top;">:</td><td><div>False</div></td></tr><tr><td style="font-weight:bold;vertical-align:top;">is_source</td><td style="vertical-align:top;">:</td><td><div>True</div></td></tr><tr><td style="font-weight:bold;vertical-align:top;">local_hosts</td><td style="vertical-align:top;">:</td><td><div><table><tr><td><div>Atomus</div></td></tr><tr><td><div>::1</div></td></tr><tr><td><div>127.0.1.1</div></td></tr><tr><td><div>::ffff:127.0.0.1</div></td></tr><tr><td><div>127.0.0.1</div></td></tr></table></div></td></tr><tr><td style="font-weight:bold;vertical-align:top;">path_info</td><td style="vertical-align:top;">:</td><td><div>/naturar/compuestos/upload3</div></td></tr><tr><td style="font-weight:bold;vertical-align:top;">query_string</td><td style="vertical-align:top;">:</td><td><div></div></td></tr><tr><td style="font-weight:bold;vertical-align:top;">remote_addr</td><td style="vertical-align:top;">:</td><td><div>127.0.0.1</div></td></tr><tr><td style="font-weight:bold;vertical-align:top;">remote_port</td><td style="vertical-align:top;">:</td><td><div>36065</div></td></tr><tr><td style="font-weight:bold;vertical-align:top;">request_method</td><td style="vertical-align:top;">:</td><td><div>POST</div></td></tr><tr><td style="font-weight:bold;vertical-align:top;">request_uri</td><td style="vertical-align:top;">:</td><td><div>/naturar/compuestos/upload3</div></td></tr><tr><td style="font-weight:bold;vertical-align:top;">script_name</td><td style="vertical-align:top;">:</td><td><div></div></td></tr><tr><td style="font-weight:bold;vertical-align:top;">server_name</td><td style="vertical-align:top;">:</td><td><div>Atomus</div></td></tr><tr><td style="font-weight:bold;vertical-align:top;">server_port</td><td style="vertical-align:top;">:</td><td><div>8000</div></td></tr><tr><td style="font-weight:bold;vertical-align:top;">server_protocol</td><td style="vertical-align:top;">:</td><td><div>HTTP/1.1</div></td></tr><tr><td style="font-weight:bold;vertical-align:top;">server_software</td><td style="vertical-align:top;">:</td><td><div>Rocket 1.2.6</div></td></tr><tr><td style="font-weight:bold;vertical-align:top;">web2py_path</td><td style="vertical-align:top;">:</td><td><div>/home/mjl/Dropbox/FITOMEDICINA/web2py</div></td></tr><tr><td style="font-weight:bold;vertical-align:top;">web2py_version</td><td style="vertical-align:top;">:</td><td><div>2.14.3-stable+timestamp.2016.03.26.23.02.02</div></td></tr><tr><td style="font-weight:bold;vertical-align:top;">wsgi.errors</td><td style="vertical-align:top;">:</td><td><div>&lt;open file &#x27;&lt;stderr&gt;&#x27;, mode &#x27;w&#x27; at 0x7f3e844e91e0&gt;</div></td></tr><tr><td style="font-weight:bold;vertical-align:top;">wsgi.file_wrapper</td><td style="vertical-align:top;">:</td><td><div>&lt;class wsgiref.util.FileWrapper at 0x7f3e7c62a120&gt;</div></td></tr><tr><td style="font-weight:bold;vertical-align:top;">wsgi.input</td><td style="vertical-align:top;">:</td><td><div>&lt;socket._fileobject object at 0x7f3e2908c150&gt;</div></td></tr><tr><td style="font-weight:bold;vertical-align:top;">wsgi.multiprocess</td><td style="vertical-align:top;">:</td><td><div>False</div></td></tr><tr><td style="font-weight:bold;vertical-align:top;">wsgi.multithread</td><td style="vertical-align:top;">:</td><td><div>True</div></td></tr><tr><td style="font-weight:bold;vertical-align:top;">wsgi.run_once</td><td style="vertical-align:top;">:</td><td><div>False</div></td></tr><tr><td style="font-weight:bold;vertical-align:top;">wsgi.url_scheme</td><td style="vertical-align:top;">:</td><td><div>http</div></td></tr><tr><td style="font-weight:bold;vertical-align:top;">wsgi.version</td><td style="vertical-align:top;">:</td><td><div><table><tr><td><div>1</div></td></tr><tr><td><div>0</div></td></tr></table></div></td></tr><tr><td style="font-weight:bold;vertical-align:top;">wsgi_errors</td><td style="vertical-align:top;">:</td><td><div>&lt;open file &#x27;&lt;stderr&gt;&#x27;, mode &#x27;w&#x27; at 0x7f3e844e91e0&gt;</div></td></tr><tr><td style="font-weight:bold;vertical-align:top;">wsgi_file_wrapper</td><td style="vertical-align:top;">:</td><td><div>&lt;class wsgiref.util.FileWrapper at 0x7f3e7c62a120&gt;</div></td></tr><tr><td style="font-weight:bold;vertical-align:top;">wsgi_input</td><td style="vertical-align:top;">:</td><td><div>&lt;socket._fileobject object at 0x7f3e2908c150&gt;</div></td></tr><tr><td style="font-weight:bold;vertical-align:top;">wsgi_multiprocess</td><td style="vertical-align:top;">:</td><td><div>False</div></td></tr><tr><td style="font-weight:bold;vertical-align:top;">wsgi_multithread</td><td style="vertical-align:top;">:</td><td><div>True</div></td></tr><tr><td style="font-weight:bold;vertical-align:top;">wsgi_run_once</td><td style="vertical-align:top;">:</td><td><div>False</div></td></tr><tr><td style="font-weight:bold;vertical-align:top;">wsgi_url_scheme</td><td style="vertical-align:top;">:</td><td><div>http</div></td></tr><tr><td style="font-weight:bold;vertical-align:top;">wsgi_version</td><td style="vertical-align:top;">:</td><td><div><table><tr><td><div>1</div></td></tr><tr><td><div>0</div></td></tr></table></div></td></tr></table></div></td></tr><tr><td style="font-weight:bold;vertical-align:top;">extension</td><td style="vertical-align:top;">:</td><td><div>html</div></td></tr><tr><td style="font-weight:bold;vertical-align:top;">folder</td><td style="vertical-align:top;">:</td><td><div>/home/mjl/Dropbox/FITOMEDICINA/web2py/applications/naturar/</div></td></tr><tr><td style="font-weight:bold;vertical-align:top;">function</td><td style="vertical-align:top;">:</td><td><div>upload3</div></td></tr><tr><td style="font-weight:bold;vertical-align:top;">global_settings</td><td style="vertical-align:top;">:</td><td><div><table><tr><td style="font-weight:bold;vertical-align:top;">app_folders</td><td style="vertical-align:top;">:</td><td><div>set([&#x27;/home/mjl/Dropbox/FITOMEDICINA/web2py/applications/admin/&#x27;, &#x27;/home/mjl/Dropbox/FITOMEDICINA/web2py/applications/welcome/&#x27;, &#x27;/home/mjl/Dropbox/FITOMEDICINA/web2py/applications/naturar/&#x27;, &#x27;/home/mjl/Dropbox/FITOMEDICINA/web2py/applications/admin2/&#x27;])</div></td></tr><tr><td style="font-weight:bold;vertical-align:top;">applications_parent</td><td style="vertical-align:top;">:</td><td><div>/home/mjl/Dropbox/FITOMEDICINA/web2py</div></td></tr><tr><td style="font-weight:bold;vertical-align:top;">cmd_args</td><td style="vertical-align:top;">:</td><td><div><table></table></div></td></tr><tr><td style="font-weight:bold;vertical-align:top;">cmd_options</td><td style="vertical-align:top;">:</td><td><div>&lt;Values at 0x7f3e7c6e8998: {&#x27;verbose&#x27;: False, &#x27;ip&#x27;: &#x27;127.0.0.1&#x27;, &#x27;debuglevel&#x27;: 30, &#x27;with_scheduler&#x27;: False, &#x27;shutdown_timeout&#x27;: 5, &#x27;taskbar&#x27;: False, &#x27;with_coverage&#x27;: False, &#x27;pid_filename&#x27;: &#x27;httpserver.pid&#x27;, &#x27;maxthreads&#x27;: None, &#x27;softcron&#x27;: False, &#x27;server_name&#x27;: &#x27;Atomus&#x27;, &#x27;bpython&#x27;: False, &#x27;nogui&#x27;: False, &#x27;port&#x27;: 8000, &#x27;print_errors&#x27;: False, &#x27;extcron&#x27;: False, &#x27;runcron&#x27;: False, &#x27;run_system_tests&#x27;: False, &#x27;test&#x27;: None, &#x27;folder&#x27;: &#x27;/home/mjl/Dropbox/FITOMEDICINA/web2py&#x27;, &#x27;config&#x27;: &#x27;&#x27;, &#x27;minthreads&#x27;: None, &#x27;shell&#x27;: None, &#x27;run&#x27;: &#x27;&#x27;, &#x27;log_filename&#x27;: &#x27;httpserver.log&#x27;, &#x27;profiler_dir&#x27;: None, &#x27;args&#x27;: [&#x27;&#x27;], &#x27;socket_timeout&#x27;: 5, &#x27;ssl_ca_certificate&#x27;: None, &#x27;scheduler&#x27;: None, &#x27;interfaces&#x27;: None, &#x27;ssl_private_key&#x27;: &#x27;&#x27;, &#x27;gae&#x27;: None, &#x27;password&#x27;: &#x27;******&#x27;, &#x27;request_queue_size&#x27;: 5, &#x27;ssl_certificate&#x27;: &#x27;&#x27;, &#x27;cronjob&#x27;: False, &#x27;numthreads&#x27;: None, &#x27;quiet&#x27;: False, &#x27;import_models&#x27;: False, &#x27;timeout&#x27;: 10, &#x27;plain&#x27;: False, &#x27;nobanner&#x27;: False}&gt;</div></td></tr><tr><td style="font-weight:bold;vertical-align:top;">db_sessions</td><td style="vertical-align:top;">:</td><td><div>set([])</div></td></tr><tr><td style="font-weight:bold;vertical-align:top;">debugging</td><td style="vertical-align:top;">:</td><td><div>True</div></td></tr><tr><td style="font-weight:bold;vertical-align:top;">gluon_parent</td><td style="vertical-align:top;">:</td><td><div>/home/mjl/Dropbox/FITOMEDICINA/web2py</div></td></tr><tr><td style="font-weight:bold;vertical-align:top;">is_jython</td><td style="vertical-align:top;">:</td><td><div>False</div></td></tr><tr><td style="font-weight:bold;vertical-align:top;">is_pypy</td><td style="vertical-align:top;">:</td><td><div>False</div></td></tr><tr><td style="font-weight:bold;vertical-align:top;">is_source</td><td style="vertical-align:top;">:</td><td><div>True</div></td></tr><tr><td style="font-weight:bold;vertical-align:top;">local_hosts</td><td style="vertical-align:top;">:</td><td><div><table><tr><td><div>Atomus</div></td></tr><tr><td><div>::1</div></td></tr><tr><td><div>127.0.1.1</div></td></tr><tr><td><div>::ffff:127.0.0.1</div></td></tr><tr><td><div>127.0.0.1</div></td></tr></table></div></td></tr><tr><td style="font-weight:bold;vertical-align:top;">web2py_version</td><td style="vertical-align:top;">:</td><td><div>2.14.3-stable+timestamp.2016.03.26.23.02.02</div></td></tr></table></div></td></tr><tr><td style="font-weight:bold;vertical-align:top;">is_https</td><td style="vertical-align:top;">:</td><td><div>False</div></td></tr><tr><td style="font-weight:bold;vertical-align:top;">is_local</td><td style="vertical-align:top;">:</td><td><div>True</div></td></tr><tr><td style="font-weight:bold;vertical-align:top;">is_restful</td><td style="vertical-align:top;">:</td><td><div>False</div></td></tr><tr><td style="font-weight:bold;vertical-align:top;">is_scheduler</td><td style="vertical-align:top;">:</td><td><div>False</div></td></tr><tr><td style="font-weight:bold;vertical-align:top;">is_shell</td><td style="vertical-align:top;">:</td><td><div>False</div></td></tr><tr><td style="font-weight:bold;vertical-align:top;">now</td><td style="vertical-align:top;">:</td><td><div>datetime.datetime(2016, 4, 18, 15, 18, 38, 774163)</div></td></tr><tr><td style="font-weight:bold;vertical-align:top;">raw_args</td><td style="vertical-align:top;">:</td><td><div></div></td></tr><tr><td style="font-weight:bold;vertical-align:top;">raw_extension</td><td style="vertical-align:top;">:</td><td><div>None</div></td></tr><tr><td style="font-weight:bold;vertical-align:top;">url</td><td style="vertical-align:top;">:</td><td><div>/naturar/compuestos/upload3</div></td></tr><tr><td style="font-weight:bold;vertical-align:top;">utcnow</td><td style="vertical-align:top;">:</td><td><div>datetime.datetime(2016, 4, 18, 18, 18, 38, 774178)</div></td></tr><tr><td style="font-weight:bold;vertical-align:top;">wsgi</td><td style="vertical-align:top;">:</td><td><div>&lt;gluon.main.LazyWSGI object at 0x7f3e29326dd0&gt;</div></td></tr></table></div>'
tRp58
sS'frames'
p59
(lp60
(dp61
S'file'
p62
S'/home/mjl/Dropbox/FITOMEDICINA/web2py/gluon/restricted.py'
p63
sS'dump'
p64
(dp65
S'environment'
p66
S"{'A': <class 'gluon.html.A'>, 'ANY_OF': <class 'gluon.validators.ANY_OF'>, 'ASSIGNJS': <function ASSIGNJS>, 'AllChem': <module 'rdkit.Chem.AllChem' from '/opt/rdkit-Release_2015_03_1/rdkit/Chem/AllChem.py'>, 'AppConfig': <function AppConfig>, 'Auth': <class 'gluon.tools.Auth'>, 'B': <class 'gluon.html.B'>, 'BEAUTIFY': <class 'gluon.html.BEAUTIFY'>, 'BODY': <class 'gluon.html.BODY'>, 'BR': <class 'gluon.html.BR'>, ...}"
p67
sS'ccode'
p68
S'<code object <module> at 0x7f3e22d434b0, file "/...ions/naturar/controllers/compuestos.py", line 10>'
p69
ssS'lnum'
p70
I227
sS'lines'
p71
(dp72
I224
S'            ccode = code'
p73
sI225
S'        else:'
p74
sI226
S'            ccode = compile2(code, layer)'
p75
sI227
S'        exec ccode in environment'
p76
sI228
S'    except HTTP:'
p77
sI229
S'        raise'
p78
sI230
S'    except RestrictedError:'
p79
sI231
S'        # do not encapsulate (obfuscate) the original RestrictedError'
p80
sI222
S'    try:'
p81
sI223
S'        if isinstance(code, types.CodeType):'
p82
ssS'call'
p83
S"(code='# -*- coding: utf-8 -*-\\n# this file is released ...ntent)\\n\\nresponse._vars=response._caller(upload3)\\n', environment={'A': <class 'gluon.html.A'>, 'ANY_OF': <class 'gluon.validators.ANY_OF'>, 'ASSIGNJS': <function ASSIGNJS>, 'AllChem': <module 'rdkit.Chem.AllChem' from '/opt/rdkit-Release_2015_03_1/rdkit/Chem/AllChem.py'>, 'AppConfig': <function AppConfig>, 'Auth': <class 'gluon.tools.Auth'>, 'B': <class 'gluon.html.B'>, 'BEAUTIFY': <class 'gluon.html.BEAUTIFY'>, 'BODY': <class 'gluon.html.BODY'>, 'BR': <class 'gluon.html.BR'>, ...}, layer='/home/mjl/Dropbox/FITOMEDICINA/web2py/applications/naturar/controllers/compuestos.py')"
p84
sS'func'
p85
S'restricted'
p86
sa(dp87
g62
S'/home/mjl/Dropbox/FITOMEDICINA/web2py/applications/naturar/controllers/compuestos.py'
p88
sg64
(dp89
sg70
I436
sg71
(dp90
I425
S'        #~ if inputmolrdkit == None:'
p91
sI426
S'        #~ print inputmolrdkit'
p92
sI427
S"        response.flash = T('Compound has been uploaded successfully.')"
p93
sI428
S''
sI429
S''
sI430
S'    content = form'
p94
sI431
S'    #~ else:'
p95
sI432
S'        #~ content = SQLFORM.grid(db.compound)'
p96
sI433
S''
sI434
S'    return dict(content=content)'
p97
ssg83
S'()'
p98
sg85
S'<module>'
p99
sa(dp100
g62
S'/home/mjl/Dropbox/FITOMEDICINA/web2py/gluon/globals.py'
p101
sg64
(dp102
S'self'
p103
S'undefined'
p104
sS'f'
S'<function upload3>'
p105
ssg70
I417
sg71
(dp106
I416
S'        self._vars = None'
p107
sI417
S'        self._caller = lambda f: f()'
p108
sI418
S'        self._view_environment = None'
p109
sI419
S'        self._custom_commit = None'
p110
sI420
S'        self._custom_rollback = None'
p111
sI421
S"        self.generic_patterns = ['*']"
p112
sI412
S"        self.flash = ''            # used by the default view layout"
p113
sI413
S'        self.meta = Storage()      # used by web2py_ajax.html'
p114
sI414
S'        self.menu = []             # used by the default view layout'
p115
sI415
S'        self.files = []            # used by web2py_ajax.html'
p116
ssg83
S'(f=<function upload3>)'
p117
sg85
S'<lambda>'
p118
sa(dp119
g62
S'/home/mjl/Dropbox/FITOMEDICINA/web2py/applications/naturar/controllers/compuestos.py'
p120
sg64
(dp121
S'form.process'
p122
S'<bound method SQLFORM.process of <gluon.sqlhtml.SQLFORM object>>'
p123
sS').accepted'
p124
g104
sS'onvalidation'
p125
g104
sS'form'
p126
S'<gluon.sqlhtml.SQLFORM object>'
p127
sS'global upload_molprocessing'
p128
S'<function upload_molprocessing>'
p129
ssg70
I382
sg71
(dp130
I384
S'        # (4) Insert compound'
p131
sI385
S'        compound_id = db.compound.insert('
p132
sI386
S'            **db.compound._filter_fields(form.vars))'
p133
sI377
S"        #~ Field('inputselector',requires=IS_IN_SET(['Smile','Draw','File']),widget=SQLFORM.widgets.radio.widget),"
p134
sI378
S"        Field('synonyms', type='list:string', requires=IS_NOT_EMPTY()),"
p135
sI379
S'    )'
p136
sI380
S''
sI381
S'    # (3) Validate form data'
p137
sI382
S'    if form.process(onvalidation=upload_molprocessing).accepted:'
p138
sI383
S''
ssg83
S'()'
p139
sg85
S'upload3'
p140
sa(dp141
g62
S'/home/mjl/Dropbox/FITOMEDICINA/web2py/gluon/html.py'
p142
sg64
(dp143
S'self'
p144
S'<gluon.sqlhtml.SQLFORM object>'
p145
sS'self.validate'
p146
S'<bound method SQLFORM.validate of <gluon.sqlhtml.SQLFORM object>>'
p147
sS'kwargs'
p148
S"{'dbio': True, 'onvalidation': <function upload_molprocessing>}"
p149
ssg70
I2301
sg71
(dp150
I2304
S'    REDIRECT_JS = "window.location=\'%s\';return false"'
p151
sI2305
S''
sI2296
S'                return dict(form=SQLFORM(db.table).process(onsuccess=my_callback)'
p152
sI2297
S''
sI2298
S''
sI2299
S'        """'
p153
sI2300
S"        kwargs['dbio'] = kwargs.get('dbio', True)  # necessary for SQLHTML forms"
p154
sI2301
S'        self.validate(**kwargs)'
p155
sI2302
S'        return self'
p156
sI2303
S''
ssg83
S"(self=<gluon.sqlhtml.SQLFORM object>, **kwargs={'dbio': True, 'onvalidation': <function upload_molprocessing>})"
p157
sg85
S'process'
p158
sa(dp159
g62
S'/home/mjl/Dropbox/FITOMEDICINA/web2py/gluon/html.py'
p160
sg64
(dp161
S'self'
p162
S'<gluon.sqlhtml.SQLFORM object>'
p163
sS'self.accepts'
p164
S'<bound method SQLFORM.accepts of <gluon.sqlhtml.SQLFORM object>>'
p165
sS'kwargs'
p166
S"{'dbio': True, 'onvalidation': <function upload_molprocessing>, 'request_vars': <Storage {'inchikey': '', 'synonyms': 'dfdf', 'c...ormkey': 'f09cd6b2-4480-47eb-9aea-4c13322106ab'}>, 'session': <Storage {'last_query': 'db.structure.id>0', '_f...eferrer_compound': '/naturar/compuestos/buscar'}>}"
p167
ssg70
I2239
sg71
(dp168
I2240
S"            if onsuccess == 'flash':"
p169
sI2241
S'                if next:'
p170
sI2242
S'                    current.session.flash = message_onsuccess'
p171
sI2243
S'                else:'
p172
sI2234
S"        for key in ('message_onsuccess', 'message_onfailure', 'onsuccess',"
p173
sI2235
S"                    'onfailure', 'next', 'message_onchange', 'onchange'):"
p174
sI2236
S'            if key in kwargs:'
p175
sI2237
S'                del kwargs[key]'
p176
sI2238
S''
sI2239
S'        if self.accepts(**kwargs):'
p177
ssg83
S"(self=<gluon.sqlhtml.SQLFORM object>, **kwargs={'dbio': True, 'onvalidation': <function upload_molprocessing>, 'request_vars': <Storage {'inchikey': '', 'synonyms': 'dfdf', 'c...ormkey': 'f09cd6b2-4480-47eb-9aea-4c13322106ab'}>, 'session': <Storage {'last_query': 'db.structure.id>0', '_f...eferrer_compound': '/naturar/compuestos/buscar'}>})"
p178
sg85
S'validate'
p179
sa(dp180
g62
S'/home/mjl/Dropbox/FITOMEDICINA/web2py/gluon/sqlhtml.py'
p181
sg64
(dp182
S'kwargs'
p183
g45
ssg70
I1529
sg71
(dp184
I1524
S'            session,'
p185
sI1525
S'            formname,'
p186
sI1526
S'            keepvalues,'
p187
sI1527
S'            onvalidation,'
p188
sI1528
S'            hideerror=hideerror,'
p189
sI1529
S'            **kwargs'
p190
sI1530
S'        )'
p191
sI1531
S''
sI1532
S'        self.deleted = request_vars.get(self.FIELDNAME_REQUEST_DELETE, False)'
p192
sI1533
S''
ssg83
S"(self=<gluon.sqlhtml.SQLFORM object>, request_vars=<Storage {'inchikey': '', 'synonyms': 'dfdf', 'c...ormkey': 'f09cd6b2-4480-47eb-9aea-4c13322106ab'}>, session=<Storage {'last_query': 'db.structure.id>0', '_f...eferrer_compound': '/naturar/compuestos/buscar'}>, formname='no_table/create', keepvalues=False, onvalidation=<function upload_molprocessing>, dbio=True, hideerror=False, detect_record_change=False, **kwargs={})"
p193
sg85
S'accepts'
p194
sa(dp195
g62
S'/home/mjl/Dropbox/FITOMEDICINA/web2py/gluon/html.py'
p196
sg64
(dp197
S'global call_as_list'
p198
S'<function call_as_list>'
p199
sS'self'
p200
S'<gluon.sqlhtml.SQLFORM object>'
p201
sS'onvalidation'
p202
S'<function upload_molprocessing>'
p203
ssg70
I2144
sg71
(dp204
I2144
S'                call_as_list(onvalidation, self)'
p205
sI2145
S'        if self.errors:'
p206
sI2146
S'            status = False'
p207
sI2147
S'        if session is not None:'
p208
sI2148
S"            if hasattr(self, 'record_hash'):"
p209
sI2139
S'                if changed:'
p210
sI2140
S'                    if onchange and self.record_changed and \\'
p211
sI2141
S'                            self.detect_record_change:'
p212
sI2142
S'                        call_as_list(onchange, self)'
p213
sI2143
S'            elif status:'
p214
ssg83
S"(self=<gluon.sqlhtml.SQLFORM object>, request_vars=<Storage {'inchikey': '', 'synonyms': 'dfdf', 'c...ormkey': 'f09cd6b2-4480-47eb-9aea-4c13322106ab'}>, session=<Storage {'last_query': 'db.structure.id>0', '_f...eferrer_compound': '/naturar/compuestos/buscar'}>, formname='no_table/create', keepvalues=False, onvalidation=<function upload_molprocessing>, hideerror=False, **kwargs={})"
p215
sg85
g194
sa(dp216
g62
S'/home/mjl/Dropbox/FITOMEDICINA/web2py/gluon/html.py'
p217
sg64
(dp218
S'a'
S'(<gluon.sqlhtml.SQLFORM object>,)'
p219
sS'item'
p220
S'<function upload_molprocessing>'
p221
sS'b'
g45
ssg70
I148
sg71
(dp222
I143
S''
sI144
S'def call_as_list(f, *a, **b):'
p223
sI145
S'    if not isinstance(f, (list, tuple)):'
p224
sI146
S'        f = [f]'
p225
sI147
S'    for item in f:'
p226
sI148
S'        item(*a, **b)'
p227
sI149
S''
sI150
S''
sI151
S"def truncate_string(text, length, dots='...'):"
p228
sI152
S"    text = text.decode('utf-8')"
p229
ssg83
S'(f=[<function upload_molprocessing>], *a=(<gluon.sqlhtml.SQLFORM object>,), **b={})'
p230
sg85
S'call_as_list'
p231
sa(dp232
g62
S'/home/mjl/Dropbox/FITOMEDICINA/web2py/applications/naturar/controllers/compuestos.py'
p233
sg64
(dp234
S'form.vars'
p235
S"<Storage {'inchikey': None, 'chemicalclasses': [...inchi': None, 'addinfo': None, 'approved': None}>"
p236
sS'form'
p237
S'<gluon.sqlhtml.SQLFORM object>'
p238
sS'global is_valid_ctab'
p239
S'<function is_valid_ctab>'
p240
sS'builtinTrue'
p241
S'True'
p242
sS'form.vars.molstructure.value'
p243
g104
sS'form.vars.molstructure'
p244
S"''"
p245
ssg70
I348
sg71
(dp246
I352
S'            else:'
p247
sI343
S'        print "valor molstructure"'
p248
sI344
S'        print form.vars.molstructure + "hola"'
p249
sI345
S'        print type(form.vars.molstructure)'
p250
sI346
S'        if form.vars.molstructure != None or form.vars.molstructure.strip() != "":'
p251
sI347
S'            #check if file is a mol file in correct format'
p252
sI348
S'            if is_valid_ctab(form.vars.molstructure.value) == True:'
p253
sI349
S'                pass'
p254
sI350
S'            #~ inputmolrdkit = Chem.MolFromMolFile(form.vars.molstructure.file)'
p255
sI351
S"            #~ inputmolfile = os.path.join(request.folder,'static/temp/') + form.vars.molstructure"
p256
ssg83
S'(form=<gluon.sqlhtml.SQLFORM object>)'
p257
sg85
S'upload_molprocessing'
p258
sasS'pyver'
p259
S'Python 2.7.6: /usr/bin/python (prefix: /usr)'
p260
sS'session'
p261
g57
(S's:\x01\x00\x00<div><table><tr><td style="font-weight:bold;vertical-align:top;">last_orderby</td><td style="vertical-align:top;">:</td><td><div>None</div></td></tr><tr><td style="font-weight:bold;vertical-align:top;">last_query</td><td style="vertical-align:top;">:</td><td><div>db.structure.id&gt;0</div></td></tr></table></div>'
tRp262
sS'etype'
p263
S"<type 'exceptions.AttributeError'>"
p264
sS'date'
p265
S'Mon Apr 18 15:18:39 2016'
p266
sS'response'
p267
g57
(S's\xc5\x1f\x00\x00<div><table><tr><td style="font-weight:bold;vertical-align:top;">body</td><td style="vertical-align:top;">:</td><td><div>&lt;cStringIO.StringO object at 0x7f3e28e2e8f0&gt;</div></td></tr><tr><td style="font-weight:bold;vertical-align:top;">cookies</td><td style="vertical-align:top;">:</td><td><div><table><tr><td style="font-weight:bold;vertical-align:top;">session_id_naturar</td><td style="vertical-align:top;">:</td><td><div>127.0.0.1-6319cafa-3f37-42c2-81d6-b1a3eb4e77d4<table><tr><td style="font-weight:bold;vertical-align:top;">comment</td><td style="vertical-align:top;">:</td><td><div></div></td></tr><tr><td style="font-weight:bold;vertical-align:top;">domain</td><td style="vertical-align:top;">:</td><td><div></div></td></tr><tr><td style="font-weight:bold;vertical-align:top;">expires</td><td style="vertical-align:top;">:</td><td><div></div></td></tr><tr><td style="font-weight:bold;vertical-align:top;">httponly</td><td style="vertical-align:top;">:</td><td><div></div></td></tr><tr><td style="font-weight:bold;vertical-align:top;">max-age</td><td style="vertical-align:top;">:</td><td><div></div></td></tr><tr><td style="font-weight:bold;vertical-align:top;">path</td><td style="vertical-align:top;">:</td><td><div>/</div></td></tr><tr><td style="font-weight:bold;vertical-align:top;">secure</td><td style="vertical-align:top;">:</td><td><div></div></td></tr><tr><td style="font-weight:bold;vertical-align:top;">version</td><td style="vertical-align:top;">:</td><td><div></div></td></tr></table></div></td></tr></table></div></td></tr><tr><td style="font-weight:bold;vertical-align:top;">delimiters</td><td style="vertical-align:top;">:</td><td><div><table><tr><td><div>{{</div></td></tr><tr><td><div>}}</div></td></tr></table></div></td></tr><tr><td style="font-weight:bold;vertical-align:top;">files</td><td style="vertical-align:top;">:</td><td><div><table></table></div></td></tr><tr><td style="font-weight:bold;vertical-align:top;">flash</td><td style="vertical-align:top;">:</td><td><div></div></td></tr><tr><td style="font-weight:bold;vertical-align:top;">form_label_separator</td><td style="vertical-align:top;">:</td><td><div></div></td></tr><tr><td style="font-weight:bold;vertical-align:top;">formstyle</td><td style="vertical-align:top;">:</td><td><div>bootstrap3_inline</div></td></tr><tr><td style="font-weight:bold;vertical-align:top;">generic_patterns</td><td style="vertical-align:top;">:</td><td><div><table><tr><td><div>*</div></td></tr></table></div></td></tr><tr><td style="font-weight:bold;vertical-align:top;">google_analytics_id</td><td style="vertical-align:top;">:</td><td><div>None</div></td></tr><tr><td style="font-weight:bold;vertical-align:top;">headers</td><td style="vertical-align:top;">:</td><td><div><table><tr><td style="font-weight:bold;vertical-align:top;">X-Powered-By</td><td style="vertical-align:top;">:</td><td><div>web2py</div></td></tr></table></div></td></tr><tr><td style="font-weight:bold;vertical-align:top;">logo</td><td style="vertical-align:top;">:</td><td><div><a class="navbar-brand" href="http://www.natur.ar/" id="web2py-logo"><b>web<span>2</span>py</b>&trade;&nbsp;</a></div></td></tr><tr><td style="font-weight:bold;vertical-align:top;">menu</td><td style="vertical-align:top;">:</td><td><div><table><tr><td><div><table><tr><td><div>Home</div></td></tr><tr><td><div>False</div></td></tr><tr><td><div>/naturar/default/index</div></td></tr><tr><td><div><table></table></div></td></tr></table></div></td></tr><tr><td><div><table><tr><td><div>Research Groups</div></td></tr><tr><td><div>False</div></td></tr><tr><td><div>/naturar/groups/list</div></td></tr><tr><td><div><table></table></div></td></tr></table></div></td></tr><tr><td><div><table><tr><td><div>Compounds</div></td></tr><tr><td><div>False</div></td></tr><tr><td><div>/naturar/data/compounds</div></td></tr><tr><td><div><table></table></div></td></tr></table></div></td></tr><tr><td><div><table><tr><td><div>Extracts</div></td></tr><tr><td><div>False</div></td></tr><tr><td><div>/naturar/data/extracts</div></td></tr><tr><td><div><table></table></div></td></tr></table></div></td></tr></table></div></td></tr><tr><td style="font-weight:bold;vertical-align:top;">meta</td><td style="vertical-align:top;">:</td><td><div><table><tr><td style="font-weight:bold;vertical-align:top;">author</td><td style="vertical-align:top;">:</td><td><div>Your Name &lt;you@example.com&gt;</div></td></tr><tr><td style="font-weight:bold;vertical-align:top;">description</td><td style="vertical-align:top;">:</td><td><div>a cool new app</div></td></tr><tr><td style="font-weight:bold;vertical-align:top;">generator</td><td style="vertical-align:top;">:</td><td><div>Web2py Web Framework</div></td></tr><tr><td style="font-weight:bold;vertical-align:top;">keywords</td><td style="vertical-align:top;">:</td><td><div>web2py, python, framework</div></td></tr></table></div></td></tr><tr><td style="font-weight:bold;vertical-align:top;">models_to_run</td><td style="vertical-align:top;">:</td><td><div><table><tr><td><div>^\\w+\\.py$</div></td></tr><tr><td><div>^compuestos/\\w+\\.py$</div></td></tr><tr><td><div>^compuestos/upload3/\\w+\\.py$</div></td></tr></table></div></td></tr><tr><td style="font-weight:bold;vertical-align:top;">postprocessing</td><td style="vertical-align:top;">:</td><td><div><table></table></div></td></tr><tr><td style="font-weight:bold;vertical-align:top;">session_client</td><td style="vertical-align:top;">:</td><td><div>127.0.0.1</div></td></tr><tr><td style="font-weight:bold;vertical-align:top;">session_cookie_compression_level</td><td style="vertical-align:top;">:</td><td><div>None</div></td></tr><tr><td style="font-weight:bold;vertical-align:top;">session_cookie_expires</td><td style="vertical-align:top;">:</td><td><div>None</div></td></tr><tr><td style="font-weight:bold;vertical-align:top;">session_data_name</td><td style="vertical-align:top;">:</td><td><div>session_data_naturar</div></td></tr><tr><td style="font-weight:bold;vertical-align:top;">session_file</td><td style="vertical-align:top;">:</td><td><div>&lt;open file &#x27;/home/mjl/Dropbox/FITOMEDICINA/web2py/applications/naturar/sessions/060/01f/127.0.0.1-6319cafa-3f37-42c2-81d6-b1a3eb4e77d4&#x27;, mode &#x27;rb+&#x27; at 0x7f3e22abc6f0&gt;</div></td></tr><tr><td style="font-weight:bold;vertical-align:top;">session_filename</td><td style="vertical-align:top;">:</td><td><div>/home/mjl/Dropbox/FITOMEDICINA/web2py/applications/naturar/sessions/127.0.0.1-6319cafa-3f37-42c2-81d6-b1a3eb4e77d4</div></td></tr><tr><td style="font-weight:bold;vertical-align:top;">session_hash</td><td style="vertical-align:top;">:</td><td><div>137c58a92d5aa885a9664ca823a2d1ea</div></td></tr><tr><td style="font-weight:bold;vertical-align:top;">session_id</td><td style="vertical-align:top;">:</td><td><div>127.0.0.1-6319cafa-3f37-42c2-81d6-b1a3eb4e77d4</div></td></tr><tr><td style="font-weight:bold;vertical-align:top;">session_id_name</td><td style="vertical-align:top;">:</td><td><div>session_id_naturar</div></td></tr><tr><td style="font-weight:bold;vertical-align:top;">session_locked</td><td style="vertical-align:top;">:</td><td><div>True</div></td></tr><tr><td style="font-weight:bold;vertical-align:top;">session_masterapp</td><td style="vertical-align:top;">:</td><td><div>naturar</div></td></tr><tr><td style="font-weight:bold;vertical-align:top;">session_new</td><td style="vertical-align:top;">:</td><td><div>False</div></td></tr><tr><td style="font-weight:bold;vertical-align:top;">session_storage_type</td><td style="vertical-align:top;">:</td><td><div>file</div></td></tr><tr><td style="font-weight:bold;vertical-align:top;">status</td><td style="vertical-align:top;">:</td><td><div>200</div></td></tr><tr><td style="font-weight:bold;vertical-align:top;">subtitle</td><td style="vertical-align:top;">:</td><td><div></div></td></tr><tr><td style="font-weight:bold;vertical-align:top;">title</td><td style="vertical-align:top;">:</td><td><div>Naturar</div></td></tr><tr><td style="font-weight:bold;vertical-align:top;">view</td><td style="vertical-align:top;">:</td><td><div>compuestos/upload3.html</div></td></tr></table></div>'
tRp268
sS'locals'
p269
(dp270
S'form'
p271
S'<gluon.sqlhtml.SQLFORM object>'
p272
sssS'traceback'
p273
S'Traceback (most recent call last):\n  File "/home/mjl/Dropbox/FITOMEDICINA/web2py/gluon/restricted.py", line 227, in restricted\n    exec ccode in environment\n  File "/home/mjl/Dropbox/FITOMEDICINA/web2py/applications/naturar/controllers/compuestos.py", line 436, in <module>\n  File "/home/mjl/Dropbox/FITOMEDICINA/web2py/gluon/globals.py", line 417, in <lambda>\n    self._caller = lambda f: f()\n  File "/home/mjl/Dropbox/FITOMEDICINA/web2py/applications/naturar/controllers/compuestos.py", line 382, in upload3\n    if form.process(onvalidation=upload_molprocessing).accepted:\n  File "/home/mjl/Dropbox/FITOMEDICINA/web2py/gluon/html.py", line 2301, in process\n    self.validate(**kwargs)\n  File "/home/mjl/Dropbox/FITOMEDICINA/web2py/gluon/html.py", line 2239, in validate\n    if self.accepts(**kwargs):\n  File "/home/mjl/Dropbox/FITOMEDICINA/web2py/gluon/sqlhtml.py", line 1529, in accepts\n    **kwargs\n  File "/home/mjl/Dropbox/FITOMEDICINA/web2py/gluon/html.py", line 2144, in accepts\n    call_as_list(onvalidation, self)\n  File "/home/mjl/Dropbox/FITOMEDICINA/web2py/gluon/html.py", line 148, in call_as_list\n    item(*a, **b)\n  File "/home/mjl/Dropbox/FITOMEDICINA/web2py/applications/naturar/controllers/compuestos.py", line 348, in upload_molprocessing\n    if is_valid_ctab(form.vars.molstructure.value) == True:\nAttributeError: \'str\' object has no attribute \'value\'\n'
p274
s.