(dp1
S'output'
p2
S'<type \'exceptions.SyntaxError\'> Field: invalid field name: location_idreference location, use rname for "funny" names'
p3
sS'layer'
p4
S'/home/www-data/web2py/applications/naturar/models/db.py'
p5
sS'code'
p6
S'# -*- coding: utf-8 -*-\n\n#########################################################################\n## This scaffolding model makes your app work on Google App Engine too\n## File is released under public domain and you can use without limitations\n#########################################################################\n\n## if SSL/HTTPS is properly configured and you want all HTTP requests to\n## be redirected to HTTPS, uncomment the line below:\n# request.requires_https()\n\n## app configuration made easy. Look inside private/appconfig.ini\nfrom gluon.contrib.appconfig import AppConfig\n## once in production, remove reload=True to gain full speed\nmyconf = AppConfig(reload=True)\n\n\n\n#~ if not request.env.web2py_runtime_gae:\n    #~ ## if NOT running on Google App Engine use SQLite or other DB\n    #~ db = DAL(myconf.take(\'db.uri\'), pool_size=myconf.take(\'db.pool_size\', cast=int), check_reserved=[\'all\'])\n#~ else:\n    #~ ## connect to Google BigTable (optional \'google:datastore://namespace\')\n    #~ db = DAL(\'google:datastore+ndb\')\n    #~ ## store sessions and tickets there\n    #~ session.connect(request, response, db=db)\n    #~ ## or store session in Memcache, Redis, etc.\n    #~ ## from gluon.contrib.memdb import MEMDB\n    #~ ## from google.appengine.api.memcache import Client\n    #~ ## session.connect(request, response, db = MEMDB(Client()))\n    \ndb = DAL("postgres://fito:123456@localhost/naturardb", lazy_tables=True)\n\n## by default give a view/generic.extension to all actions from localhost\n## none otherwise. a pattern can be \'controller/function.extension\'\nresponse.generic_patterns = [\'*\'] if request.is_local else []\n## choose a style for forms\nresponse.formstyle = myconf.take(\'forms.formstyle\')  # or \'bootstrap3_stacked\' or \'bootstrap2\' or other\nresponse.form_label_separator = myconf.take(\'forms.separator\')\n\n\n## (optional) optimize handling of static files\n# response.optimize_css = \'concat,minify,inline\'\n# response.optimize_js = \'concat,minify,inline\'\n## (optional) static assets folder versioning\n# response.static_version = \'0.0.0\'\n#########################################################################\n## Here is sample code if you need for\n## - email capabilities\n## - authentication (registration, login, logout, ... )\n## - authorization (role based authorization)\n## - services (xml, csv, json, xmlrpc, jsonrpc, amf, rss)\n## - old style crud actions\n## (more options discussed in gluon/tools.py)\n#########################################################################\n\nfrom gluon.tools import Auth, Service, PluginManager\n\nauth = Auth(db)\nservice = Service()\nplugins = PluginManager()\n\n## extra fields (mjl)\nauth.settings.extra_fields[\'auth_user\']= [\n    Field(\'address\', label=T(\'Address\')),\n    Field(\'phone\', label=T(\'Phone\')),\n    Field(\'picture\', label=T(\'Picture\')),\n    Field(\'rearchdescription\', label=T(\'Research Description\')),\n    Field(\'additionalinfo\', label=T(\'Additional Information\')),\n    ]\n\n\n## create all tables needed by auth if not custom tables\nauth.define_tables(username=False, signature=False) \n\n\n## configure email\nmail = auth.settings.mailer\nmail.settings.server = \'logging\' if request.is_local else myconf.take(\'smtp.server\')\nmail.settings.sender = myconf.take(\'smtp.sender\')\nmail.settings.login = myconf.take(\'smtp.login\')\n\n## configure auth policy\nauth.settings.registration_requires_verification = False\nauth.settings.registration_requires_approval = False\nauth.settings.reset_password_requires_verification = True\n\n\n#########################################################################\n## Define your tables below (or better in another model file) for example\n##\n## >>> db.define_table(\'mytable\',Field(\'myfield\',\'string\'))\n##\n## Fields can be \'string\',\'text\',\'password\',\'integer\',\'double\',\'boolean\'\n##       \'date\',\'time\',\'datetime\',\'blob\',\'upload\', \'reference TABLENAME\'\n## There is an implicit \'id integer autoincrement\' field\n## Consult manual for more options, validators, etc.\n##\n## More API examples for controllers:\n##\n## >>> db.mytable.insert(myfield=\'value\')\n## >>> rows=db(db.mytable.myfield==\'value\').select(db.mytable.ALL)\n## >>> for row in rows: print row.id, row.myfield\n#########################################################################\n\n#settings\n\n#~ settings.max_size # get the value\n#~ settings.update_record(summary=new_summary) # set a value \ndb.define_table(\'settings\', \n    Field(\'imagedir\', default="applications/naturar/images_molecule/"),\n    #~ Field(\'max_size\', \'integer\', default=10),\n    #~ Field(\'summary\', \'text\', \'abc\'),\n)\n# create an instance of settings table\nsettings = db(db.settings.id > 0).select().first()\nif not settings:\n    settings = db.settings.insert()\n\n# --------------------------------------------------------------------    \n# LOCATION\n# --------------------------------------------------------------------\n\n\'\'\'data is extrated of Yahoo and Google webservices \'\'\'\ndb.define_table(\'location\', \n    auth.signature,\n    Field(\'country\'),\n    Field(\'state\'),\n    Field(\'city\'),\n    Field(\'place\'),\n    Field(\'latitude\'),\n    Field(\'longitude\'),\n    Field(\'yahoowoeid\'),\n    Field(\'googleplaceid\'),\n    Field(\'placetypename\'),\n    )\n\n\n# --------------------------------------------------------------------\n# DOCS\n# --------------------------------------------------------------------\n\n\'\'\'\nStore bibliographic information, this can be obtained from Crossref API\n\'\'\'\ndb.define_table(\'doc\', \n    auth.signature,\n    Field(\'journal\'),\n    Field(\'year\'),\n    Field(\'volume\'),\n    Field(\'issue\'),\n    Field(\'first_page\'),\n    Field(\'last_page\'),\n    Field(\'doi\'),\n    Field(\'pubmed_id\'),\n    Field(\'title\'),\n    Field(\'doc_type\'),\n    Field(\'authors\'),\n    Field(\'abstract\'),\n    )\n\n\n# --------------------------------------------------------------------\n# COMPOUND INFORMATION\n# --------------------------------------------------------------------\n\n\'\'\'\nStore compound information\n\'\'\'\ndb.define_table(\'compound\', \n    auth.signature,\n    Field(\'compoundname\', requires=IS_NOT_EMPTY()),\n    Field(\'iupacname\'),\n    Field(\'inchi\'),\n    Field(\'inchikey\'),\n    Field(\'isosmiles\'),\n    Field(\'cansmiles\'),\n    Field(\'imagepath\', \'text\',readable=False, writable=False),\n    Field(\'addinfo\'),\n    format=\'C%(id)i-%(name)s\',\n    )\n    \n\'\'\'\nMany to many table relationship: Docs and Compounds\n\'\'\'\ndb.define_table(\'compound_doc\',\n    auth.signature,\n    Field(\'compound_id\', \'reference compound\'),\n    Field(\'doc_id\', \'reference doc\'),\n    )\n\n\'\'\'\nStructures (conformers) of compounds\n\'\'\'\ndb.executesql(\'CREATE TABLE IF NOT EXISTS structure (id int NOT null, molstructure MOL, compound_id int references compound(id), PRIMARY KEY(id));\')\n\n\'\'\'\nStore descriptors of 3D structures\n\'\'\'\ndb.define_table(\'structuredescriptor\',\n    auth.signature,\n    Field(\'methodname\')\n    )\n    \n\'\'\'\nMany to many table relationship: StructureDescriptors and Structures\n\'\'\'\ndb.define_table(\'structure_descriptor\',\n    auth.signature,\n    Field(\'structuredescriptor_id\', \'reference structuredescriptor\'),\n    Field(\'structure_id\', \'reference structure\'),\n    Field(\'descriptorvalue\'),\n    )    \n\n\'\'\'\nTypes of compound synomys\n\'\'\'\ndb.define_table(\'synonymtype\',\n    auth.signature,\n    Field(\'synonymtype\'),\n    ) \n\n\'\'\'\nStore synonyms of compound names\n\'\'\'\ndb.define_table(\'synonym\',\n    auth.signature,\n    Field(\'synonymtype_id\', \'reference synonymtype\'),\n    Field(\'synonymname\'),\n    Field(\'compound_id\', \'reference compound\'),\n    )    \n\n\'\'\'\nList of compound classification, active.\n\'\'\'\ndb.define_table(\'classification\',\n    auth.signature,\n    Field(\'classificationname\'),\n    Field(\'classificationdescription\'),\n    )\n\n\'\'\'\nMany to many table relationship: Classification and Compounds\n\'\'\'\ndb.define_table(\'compound_classification\',\n    auth.signature,\n    Field(\'compound_id\', \'reference compound\'),\n    Field(\'classification_id\', \'reference classification\'),\n    )\n    \n\'\'\'\nList of compound class,  \nfuctional groups, ej aminas, sulfonamidas, etc.\n\'\'\'\ndb.define_table(\'chemicalclass\',\n    auth.signature,\n    Field(\'classname_en\'),\n    Field(\'classname_es\'),\n    Field(\'classdescription\'),\n    )\n\n\'\'\'\nMany to many table relationship: Chemicalclass and Compounds,\n\'\'\'\ndb.define_table(\'compound_chemicalclass\',\n    auth.signature,\n    Field(\'compound_id\', \'reference compound\'),\n    Field(\'chemicalclass_id\', \'reference chemicalclass\'),\n    )\n    \n\'\'\'\nDefine isomer relationships between two compounds\n\'\'\'\ndb.define_table(\'isomer\',\n    auth.signature,\n    Field(\'compound1_id\', \'reference compound\'),\n    Field(\'compound2_id\', \'reference compound\'),\n    )\n\n\n#~ # define autocomplete function for extracto\n#~ db.compound_record.extract.widget = SQLFORM.widgets.autocomplete(\n     #~ request, db.extract_record.extract_name, id_field=db.extract_record.id, limitby=(0,10), min_length=2)\n\n\'\'\'\nList of calculated properties\n\'\'\'\ndb.define_table(\'property\', \n    auth.signature,\n    Field(\'compound_record_id\', \'reference compound_record\'),\n    Field(\'molecularweight\'),\n    Field(\'molecularformula\'),\n    Field(\'molecularvolume\', label="volumen"),\n    Field(\'logp\'),\n    Field(\'tpsa\'),\n    Field(\'hbd\'),\n    Field(\'hba\'),\n    Field(\'numrotatable\'),\n    Field(\'numring\'),\n    Field(\'numn\'),\n    Field(\'numo\'),\n    Field(\'nums\'),\n    Field(\'numro5violation\'),\n    )\n\n\'\'\'\nList of extra properties\n\'\'\'\ndb.define_table(\'extraproperty\', \n    auth.signature,\n    Field(\'extrapropertyname_en\'),\n    Field(\'extrapropertyname_es\'),\n    )\n\n\'\'\'\nMany to many table relationship: Extraproperty and Compounds,\n\'\'\'\ndb.define_table(\'compound_extraproperty\',\n    auth.signature,\n    Field(\'compound_id\', \'reference compound\'),\n    Field(\'extraproperty_id\', \'reference extraproperty\'),\n    Field(\'extrapropertyvalue\')\n    )\n\n\n# --------------------------------------------------------------------\n# SOURCE INFORMATION\n# --------------------------------------------------------------------\n\n\'\'\' \nTable where is stored source information obtained frod databases like \nCatalogue of Life using webservices.\ndbname is the name of the database whereis is obtained the data and \nidfromdb is the original ID code .\n\'\'\'\ndb.define_table(\'source\', \n    auth.signature,\n    Field(\'scientificname\'),\n    Field(\'sourcekingdom\'),\n    Field(\'sourcefamily\'),\n    Field(\'sourcegenus\'),\n    Field(\'sourcespecies\'),\n    Field(\'variety\'),\n    Field(\'ethnomedicinalinfo\'),\n    Field(\'dbname\'),\n    Field(\'idfromdb\'),\n    )\n\n\'\'\'\nImages of sources\n\'\'\'\ndb.define_table(\'sourceimage\',\n    auth.signature,\n    Field(\'source_id\', \'reference source\'),\n    Field(\'sourceimage\'),\n    Field(\'credit\'),\n    )\n\n\'\'\'\nNative names of a source\n\'\'\'\ndb.define_table(\'nativename\',\n    auth.signature,\n    Field(\'source_id\', \'reference source\'),\n    Field(\'nativename\'),\n    Field(\'culture\'),\n    )\n    \n\'\'\'\nCommon names of a source\n\'\'\'\ndb.define_table(\'commonname\',\n    auth.signature,\n    Field(\'source_id\', \'reference source\'),\n    Field(\'commonname\'),\n    )\n    \n\'\'\'\nMedicinal Uses\n\'\'\'\ndb.define_table(\'medicinal\',\n    auth.signature,\n    Field(\'medicinaluse_en\'),\n    Field(\'medicinaluse_es\'),\n    )\n\n\'\'\'\nMany to many table relationship: Medicinal Uses and Sources\n\'\'\'\ndb.define_table(\'source_medicinal\',\n    auth.signature,\n    Field(\'source_id\', \'reference source\'),\n    Field(\'medicinal_id\', \'reference medicinal\'),\n    )\n    \n\'\'\'\nFood Uses\n\'\'\'\ndb.define_table(\'food\',\n    auth.signature,\n    Field(\'fooduse_en\'),\n    Field(\'fooduse_es\'),\n    )\n\n\'\'\'\nMany to many table relationship: Food Uses and Sources\n\'\'\'\ndb.define_table(\'source_food\',\n    auth.signature,\n    Field(\'source_id\', \'reference source\'),\n    Field(\'food_id\', \'reference food\'),\n    )\n\n\n\'\'\'\nOther Uses\n\'\'\'\ndb.define_table(\'otheruse\',\n    auth.signature,\n    Field(\'otherusename\'),\n    )\n\n\'\'\'\nMany to many table relationship: Other Uses and Sources\n\'\'\'\ndb.define_table(\'source_otheruse\',\n    auth.signature,\n    Field(\'source_id\', \'reference source\'),\n    Field(\'otheruse_id\', \'reference otheruse\'),\n    )\n\n\'\'\'\nMany to many table relationship: Location and Sources\n\'\'\'\ndb.define_table(\'source_location\',\n    auth.signature,\n    Field(\'source_id\', \'reference source\'),\n    Field(\'location_id\', \'reference location\'),\n    )\n\n\'\'\'\nMany to many table relationship: Docs and Sources\n\'\'\'\ndb.define_table(\'source_doc\',\n    auth.signature,\n    Field(\'source_id\', \'reference source\'),\n    Field(\'doc_id\', \'reference doc\'),\n    )\n     \n     \n# --------------------------------------------------------------------\n# USERS (cont.)\n# --------------------------------------------------------------------\n\n\'\'\'\nStore internal messages between members\n\'\'\'\ndb.define_table(\'message\',\n    auth.signature,\n    Field(\'messagetitle\'),\n    Field(\'messagebody\'),\n    Field(\'usersent_id\', \'reference auth_user\'),\n    Field(\'userreceiver_id\', \'reference auth_user\'),\n    Field(\'date\'),\n    )\n\n\'\'\'\nResearch groups\n\'\'\'\ndb.define_table(\'researchgroup\',\n    auth.signature,\n    Field(\'reseachname\'),\n    Field(\'members\'),\n    Field(\'institution\'),\n    Field(\'webpage\'),\n    Field(\'email\'),\n    Field(\'telephone\'),\n    Field(\'address\'),\n    Field(\'location_id\' \'reference location\'),\n    Field(\'logo\'),\n    )\n    \n\'\'\'\nMany to many table relationship: Research Groups and Users\n\'\'\'\ndb.define_table(\'user_reseach\',\n    auth.signature,\n    Field(\'user_id\', \'reference auth_user\'),\n    Field(\'researchgroup_id\', \'reference researchgroup\'),\n    )\n    \n\'\'\'\nMany to many table relationship: Docs and Users\n\'\'\'\ndb.define_table(\'user_doc\',\n    auth.signature,\n    Field(\'user_id\', \'reference auth_user\'),\n    Field(\'doc_id\', \'reference doc\'),\n    )   \n\n\'\'\'\nMany to many table relationship: Compounds and Users to store in profile \n\'\'\'\ndb.define_table(\'bookmark\',\n    auth.signature,\n    Field(\'user_id\', \'reference auth_user\'),\n    Field(\'compound_id\', \'reference compound\'),\n    )   \n\n\n# --------------------------------------------------------------------\n# EXTRACTS\n# --------------------------------------------------------------------\n\n\'\'\'\nList of part from where you can obtain extract\n\'\'\'\ndb.define_table(\'partused\',\n    auth.signature,\n    Field(\'partname_en\'),\n    Field(\'partname_es\'),\n    )\n\n\'\'\'\nMain table of extract\n\'\'\'\ndb.define_table(\'extract\', \n    auth.signature,\n    Field(\'source_id\', \'reference source\'),\n    Field(\'location_id\', \'reference location\'),\n    Field(\'partused_id\', \'reference partused\'),\n    Field(\'extractpreparation\'),\n    format=\'%(extract_name)s\',\n    )\n\n\'\'\'\nMany to many table relationship: Docs and Extract\n\'\'\'\ndb.define_table(\'extract_doc\',\n    auth.signature,\n    Field(\'extract_id\', \'reference extract\'),\n    Field(\'doc_id\', \'reference doc\'),\n    )\n\n\'\'\'\nMany to many table relationship: Compound and Extract\n\'\'\'\ndb.define_table(\'compound_extract\',\n    auth.signature,\n    Field(\'extract_id\', \'reference extract\'),\n    Field(\'compound_id\', \'reference compound\'),\n    Field(\'compoundamount\'),\n    )\n\n\n# --------------------------------------------------------------------\n# ASSAYS\n# --------------------------------------------------------------------\n\n\'\'\'\nList of assays\n\'\'\'\ndb.define_table(\'assay\',\n    auth.signature,\n    Field(\'assayname\'),\n    Field(\'assaydescription\'),\n    Field(\'pubchecbioassay_id\'),\n    )\n\n\'\'\'\nMany to many table relationship: Assay and Extract\n\'\'\'\ndb.define_table(\'extract_assay\',\n    auth.signature,\n    Field(\'extract_id\', \'reference extract\'),\n    Field(\'compound_id\', \'reference compound\'),\n    Field(\'compoundamount\'),    \n    Field(\'inhibition\'),\n    Field(\'activity\'),\n    Field(\'cytotoxicity\'),\n    Field(\'sideEffects\'),\n    )\n\n\'\'\'\nMany to many table relationship: Docs and Assay\n\'\'\'\ndb.define_table(\'assay_doc\',\n    auth.signature,\n    Field(\'assay_id\', \'reference assay\'),\n    Field(\'doc_id\', \'reference doc\'),\n    )\n\n\'\'\'\nList of assay targets\n\'\'\'\ndb.define_table(\'target\',\n    auth.signature,\n    Field(\'targetname\'),\n    )\n\n\'\'\'\nMany to many table relationship: Target and Assay\n\'\'\'\ndb.define_table(\'assay_target\',\n    auth.signature,\n    Field(\'assay_id\', \'reference assay\'),\n    Field(\'target_id\', \'reference target\'),\n    )\n\n\n\n## after defining tables, uncomment below to enable auditing\n#~ auth.enable_record_versioning(db)\n\n\n\n'
p7
sS'snapshot'
p8
(dp9
S'exception'
p10
(dp11
S'__getslice__'
p12
S"<method-wrapper '__getslice__' of exceptions.SyntaxError object>"
p13
sS'text'
p14
S'None'
p15
sS'__str__'
p16
S"<method-wrapper '__str__' of exceptions.SyntaxError object>"
p17
sS'__reduce__'
p18
S'<built-in method __reduce__ of exceptions.SyntaxError object>'
p19
sS'__dict__'
p20
S'{}'
p21
sS'__sizeof__'
p22
S'<built-in method __sizeof__ of exceptions.SyntaxError object>'
p23
sS'__init__'
p24
S"<method-wrapper '__init__' of exceptions.SyntaxError object>"
p25
sS'__setattr__'
p26
S"<method-wrapper '__setattr__' of exceptions.SyntaxError object>"
p27
sS'__reduce_ex__'
p28
S'<built-in method __reduce_ex__ of exceptions.SyntaxError object>'
p29
sS'__new__'
p30
S'<built-in method __new__ of type object>'
p31
sS'__format__'
p32
S'<built-in method __format__ of exceptions.SyntaxError object>'
p33
sS'__class__'
p34
S"<type 'exceptions.SyntaxError'>"
p35
sS'filename'
p36
S'None'
p37
sS'lineno'
p38
S'None'
p39
sS'msg'
p40
S'\'Field: invalid field name: location_idreference location, use rname for "funny" names\''
p41
sS'__doc__'
p42
S"'Invalid syntax.'"
p43
sS'__getitem__'
p44
S"<method-wrapper '__getitem__' of exceptions.SyntaxError object>"
p45
sS'__setstate__'
p46
S'<built-in method __setstate__ of exceptions.SyntaxError object>'
p47
sS'__getattribute__'
p48
S"<method-wrapper '__getattribute__' of exceptions.SyntaxError object>"
p49
sS'print_file_and_line'
p50
S'None'
p51
sS'args'
p52
S'(\'Field: invalid field name: location_idreference location, use rname for "funny" names\',)'
p53
sS'__subclasshook__'
p54
S'<built-in method __subclasshook__ of type object>'
p55
sS'offset'
p56
S'None'
p57
sS'__unicode__'
p58
S'<built-in method __unicode__ of exceptions.SyntaxError object>'
p59
sS'__delattr__'
p60
S"<method-wrapper '__delattr__' of exceptions.SyntaxError object>"
p61
sS'__repr__'
p62
S"<method-wrapper '__repr__' of exceptions.SyntaxError object>"
p63
sS'__hash__'
p64
S"<method-wrapper '__hash__' of exceptions.SyntaxError object>"
p65
ssS'evalue'
p66
S'Field: invalid field name: location_idreference location, use rname for "funny" names'
p67
sS'request'
p68
cgluon.html
XML_unpickle
p69
(S's\x8a[\x00\x00<div><table><tr><td style="font-weight:bold;vertical-align:top;">ajax</td><td style="vertical-align:top;">:</td><td><div>False</div></td></tr><tr><td style="font-weight:bold;vertical-align:top;">application</td><td style="vertical-align:top;">:</td><td><div>naturar</div></td></tr><tr><td style="font-weight:bold;vertical-align:top;">args</td><td style="vertical-align:top;">:</td><td><div><table></table></div></td></tr><tr><td style="font-weight:bold;vertical-align:top;">cid</td><td style="vertical-align:top;">:</td><td><div>None</div></td></tr><tr><td style="font-weight:bold;vertical-align:top;">client</td><td style="vertical-align:top;">:</td><td><div>127.0.0.1</div></td></tr><tr><td style="font-weight:bold;vertical-align:top;">controller</td><td style="vertical-align:top;">:</td><td><div>compuestos</div></td></tr><tr><td style="font-weight:bold;vertical-align:top;">cookies</td><td style="vertical-align:top;">:</td><td><div><table><tr><td style="font-weight:bold;vertical-align:top;">session_id_admin</td><td style="vertical-align:top;">:</td><td><div>127.0.0.1-7240e5df-a847-4a36-9c8c-71f953e1dcb1<table><tr><td style="font-weight:bold;vertical-align:top;">comment</td><td style="vertical-align:top;">:</td><td><div></div></td></tr><tr><td style="font-weight:bold;vertical-align:top;">domain</td><td style="vertical-align:top;">:</td><td><div></div></td></tr><tr><td style="font-weight:bold;vertical-align:top;">expires</td><td style="vertical-align:top;">:</td><td><div></div></td></tr><tr><td style="font-weight:bold;vertical-align:top;">httponly</td><td style="vertical-align:top;">:</td><td><div></div></td></tr><tr><td style="font-weight:bold;vertical-align:top;">max-age</td><td style="vertical-align:top;">:</td><td><div></div></td></tr><tr><td style="font-weight:bold;vertical-align:top;">path</td><td style="vertical-align:top;">:</td><td><div></div></td></tr><tr><td style="font-weight:bold;vertical-align:top;">secure</td><td style="vertical-align:top;">:</td><td><div></div></td></tr><tr><td style="font-weight:bold;vertical-align:top;">version</td><td style="vertical-align:top;">:</td><td><div></div></td></tr></table></div></td></tr><tr><td style="font-weight:bold;vertical-align:top;">session_id_naturar</td><td style="vertical-align:top;">:</td><td><div>127.0.0.1-04a0b155-1236-48c7-863d-066aaaace2b9<table><tr><td style="font-weight:bold;vertical-align:top;">comment</td><td style="vertical-align:top;">:</td><td><div></div></td></tr><tr><td style="font-weight:bold;vertical-align:top;">domain</td><td style="vertical-align:top;">:</td><td><div></div></td></tr><tr><td style="font-weight:bold;vertical-align:top;">expires</td><td style="vertical-align:top;">:</td><td><div></div></td></tr><tr><td style="font-weight:bold;vertical-align:top;">httponly</td><td style="vertical-align:top;">:</td><td><div></div></td></tr><tr><td style="font-weight:bold;vertical-align:top;">max-age</td><td style="vertical-align:top;">:</td><td><div></div></td></tr><tr><td style="font-weight:bold;vertical-align:top;">path</td><td style="vertical-align:top;">:</td><td><div></div></td></tr><tr><td style="font-weight:bold;vertical-align:top;">secure</td><td style="vertical-align:top;">:</td><td><div></div></td></tr><tr><td style="font-weight:bold;vertical-align:top;">version</td><td style="vertical-align:top;">:</td><td><div></div></td></tr></table></div></td></tr><tr><td style="font-weight:bold;vertical-align:top;">session_id_welcome</td><td style="vertical-align:top;">:</td><td><div>127.0.0.1-fe9a276b-f12e-4254-a5a4-42ef06ea8582<table><tr><td style="font-weight:bold;vertical-align:top;">comment</td><td style="vertical-align:top;">:</td><td><div></div></td></tr><tr><td style="font-weight:bold;vertical-align:top;">domain</td><td style="vertical-align:top;">:</td><td><div></div></td></tr><tr><td style="font-weight:bold;vertical-align:top;">expires</td><td style="vertical-align:top;">:</td><td><div></div></td></tr><tr><td style="font-weight:bold;vertical-align:top;">httponly</td><td style="vertical-align:top;">:</td><td><div></div></td></tr><tr><td style="font-weight:bold;vertical-align:top;">max-age</td><td style="vertical-align:top;">:</td><td><div></div></td></tr><tr><td style="font-weight:bold;vertical-align:top;">path</td><td style="vertical-align:top;">:</td><td><div></div></td></tr><tr><td style="font-weight:bold;vertical-align:top;">secure</td><td style="vertical-align:top;">:</td><td><div></div></td></tr><tr><td style="font-weight:bold;vertical-align:top;">version</td><td style="vertical-align:top;">:</td><td><div></div></td></tr></table></div></td></tr></table></div></td></tr><tr><td style="font-weight:bold;vertical-align:top;">env</td><td style="vertical-align:top;">:</td><td><div><table><tr><td style="font-weight:bold;vertical-align:top;">HTTP_ACCEPT</td><td style="vertical-align:top;">:</td><td><div>text/html,application/xhtml+xml,application/xml;q=0.9,image/webp,*/*;q=0.8</div></td></tr><tr><td style="font-weight:bold;vertical-align:top;">HTTP_ACCEPT_ENCODING</td><td style="vertical-align:top;">:</td><td><div>gzip, deflate, sdch</div></td></tr><tr><td style="font-weight:bold;vertical-align:top;">HTTP_ACCEPT_LANGUAGE</td><td style="vertical-align:top;">:</td><td><div>es-ES,es;q=0.8</div></td></tr><tr><td style="font-weight:bold;vertical-align:top;">HTTP_CACHE_CONTROL</td><td style="vertical-align:top;">:</td><td><div>max-age=0</div></td></tr><tr><td style="font-weight:bold;vertical-align:top;">HTTP_CONNECTION</td><td style="vertical-align:top;">:</td><td><div>keep-alive</div></td></tr><tr><td style="font-weight:bold;vertical-align:top;">HTTP_COOKIE</td><td style="vertical-align:top;">:</td><td><div>session_id_welcome=127.0.0.1-fe9a276b-f12e-4254-a5a4-42ef06ea8582; session_id_naturar=127.0.0.1-04a0b155-1236-48c7-863d-066aaaace2b9; session_id_admin=127.0.0.1-7240e5df-a847-4a36-9c8c-71f953e1dcb1</div></td></tr><tr><td style="font-weight:bold;vertical-align:top;">HTTP_HOST</td><td style="vertical-align:top;">:</td><td><div>127.0.1.1:8000</div></td></tr><tr><td style="font-weight:bold;vertical-align:top;">HTTP_UPGRADE_INSECURE_REQUESTS</td><td style="vertical-align:top;">:</td><td><div>1</div></td></tr><tr><td style="font-weight:bold;vertical-align:top;">HTTP_USER_AGENT</td><td style="vertical-align:top;">:</td><td><div>Mozilla/5.0 (X11; Linux x86_64) AppleWebKit/537.36 (KHTML, like Gecko) Chrome/47.0.2526.106 Safari/537.36</div></td></tr><tr><td style="font-weight:bold;vertical-align:top;">PATH_INFO</td><td style="vertical-align:top;">:</td><td><div>/naturar/compuestos/buscar</div></td></tr><tr><td style="font-weight:bold;vertical-align:top;">QUERY_STRING</td><td style="vertical-align:top;">:</td><td><div></div></td></tr><tr><td style="font-weight:bold;vertical-align:top;">REMOTE_ADDR</td><td style="vertical-align:top;">:</td><td><div>127.0.0.1</div></td></tr><tr><td style="font-weight:bold;vertical-align:top;">REMOTE_PORT</td><td style="vertical-align:top;">:</td><td><div>35283</div></td></tr><tr><td style="font-weight:bold;vertical-align:top;">REQUEST_METHOD</td><td style="vertical-align:top;">:</td><td><div>GET</div></td></tr><tr><td style="font-weight:bold;vertical-align:top;">SCRIPT_NAME</td><td style="vertical-align:top;">:</td><td><div></div></td></tr><tr><td style="font-weight:bold;vertical-align:top;">SERVER_NAME</td><td style="vertical-align:top;">:</td><td><div>Gandalf</div></td></tr><tr><td style="font-weight:bold;vertical-align:top;">SERVER_PORT</td><td style="vertical-align:top;">:</td><td><div>8000</div></td></tr><tr><td style="font-weight:bold;vertical-align:top;">SERVER_PROTOCOL</td><td style="vertical-align:top;">:</td><td><div>HTTP/1.1</div></td></tr><tr><td style="font-weight:bold;vertical-align:top;">SERVER_SOFTWARE</td><td style="vertical-align:top;">:</td><td><div>Rocket 1.2.6</div></td></tr><tr><td style="font-weight:bold;vertical-align:top;">app_folders</td><td style="vertical-align:top;">:</td><td><div>set([&#x27;/home/www-data/web2py/applications/welcome/&#x27;, &#x27;/home/www-data/web2py/applications/naturar/&#x27;, &#x27;/home/www-data/web2py/applications/admin/&#x27;])</div></td></tr><tr><td style="font-weight:bold;vertical-align:top;">applications_parent</td><td style="vertical-align:top;">:</td><td><div>/home/www-data/web2py</div></td></tr><tr><td style="font-weight:bold;vertical-align:top;">cmd_args</td><td style="vertical-align:top;">:</td><td><div><table></table></div></td></tr><tr><td style="font-weight:bold;vertical-align:top;">cmd_options</td><td style="vertical-align:top;">:</td><td><div>&lt;Values at 0x7f096a816f38: {&#x27;verbose&#x27;: False, &#x27;ip&#x27;: &#x27;127.0.0.1&#x27;, &#x27;debuglevel&#x27;: 30, &#x27;with_scheduler&#x27;: False, &#x27;ips&#x27;: [&#x27;127.0.1.1&#x27;], &#x27;shutdown_timeout&#x27;: 5, &#x27;taskbar&#x27;: False, &#x27;with_coverage&#x27;: False, &#x27;scheduler_groups&#x27;: None, &#x27;port&#x27;: 8000, &#x27;maxthreads&#x27;: None, &#x27;softcron&#x27;: False, &#x27;server_name&#x27;: &#x27;Gandalf&#x27;, &#x27;bpython&#x27;: False, &#x27;nogui&#x27;: False, &#x27;pid_filename&#x27;: &#x27;httpserver.pid&#x27;, &#x27;print_errors&#x27;: False, &#x27;extcron&#x27;: False, &#x27;runcron&#x27;: False, &#x27;run_system_tests&#x27;: False, &#x27;test&#x27;: None, &#x27;folder&#x27;: &#x27;/home/www-data/web2py&#x27;, &#x27;config&#x27;: &#x27;&#x27;, &#x27;minthreads&#x27;: None, &#x27;shell&#x27;: None, &#x27;run&#x27;: &#x27;&#x27;, &#x27;log_filename&#x27;: &#x27;httpserver.log&#x27;, &#x27;profiler_dir&#x27;: None, &#x27;args&#x27;: [&#x27;&#x27;], &#x27;socket_timeout&#x27;: 5, &#x27;ssl_ca_certificate&#x27;: None, &#x27;scheduler&#x27;: None, &#x27;interfaces&#x27;: None, &#x27;ssl_private_key&#x27;: &#x27;&#x27;, &#x27;gae&#x27;: None, &#x27;password&#x27;: &#x27;&lt;ask&gt;&#x27;, &#x27;request_queue_size&#x27;: 5, &#x27;ssl_certificate&#x27;: &#x27;&#x27;, &#x27;cronjob&#x27;: False, &#x27;numthreads&#x27;: None, &#x27;quiet&#x27;: False, &#x27;import_models&#x27;: False, &#x27;timeout&#x27;: 10, &#x27;plain&#x27;: False, &#x27;nobanner&#x27;: False}&gt;</div></td></tr><tr><td style="font-weight:bold;vertical-align:top;">db_sessions</td><td style="vertical-align:top;">:</td><td><div>set([])</div></td></tr><tr><td style="font-weight:bold;vertical-align:top;">debugging</td><td style="vertical-align:top;">:</td><td><div>False</div></td></tr><tr><td style="font-weight:bold;vertical-align:top;">gluon_parent</td><td style="vertical-align:top;">:</td><td><div>/home/www-data/web2py</div></td></tr><tr><td style="font-weight:bold;vertical-align:top;">http_accept</td><td style="vertical-align:top;">:</td><td><div>text/html,application/xhtml+xml,application/xml;q=0.9,image/webp,*/*;q=0.8</div></td></tr><tr><td style="font-weight:bold;vertical-align:top;">http_accept_encoding</td><td style="vertical-align:top;">:</td><td><div>gzip, deflate, sdch</div></td></tr><tr><td style="font-weight:bold;vertical-align:top;">http_accept_language</td><td style="vertical-align:top;">:</td><td><div>es-ES,es;q=0.8</div></td></tr><tr><td style="font-weight:bold;vertical-align:top;">http_cache_control</td><td style="vertical-align:top;">:</td><td><div>max-age=0</div></td></tr><tr><td style="font-weight:bold;vertical-align:top;">http_connection</td><td style="vertical-align:top;">:</td><td><div>keep-alive</div></td></tr><tr><td style="font-weight:bold;vertical-align:top;">http_cookie</td><td style="vertical-align:top;">:</td><td><div>session_id_welcome=127.0.0.1-fe9a276b-f12e-4254-a5a4-42ef06ea8582; session_id_naturar=127.0.0.1-04a0b155-1236-48c7-863d-066aaaace2b9; session_id_admin=127.0.0.1-7240e5df-a847-4a36-9c8c-71f953e1dcb1</div></td></tr><tr><td style="font-weight:bold;vertical-align:top;">http_host</td><td style="vertical-align:top;">:</td><td><div>127.0.1.1:8000</div></td></tr><tr><td style="font-weight:bold;vertical-align:top;">http_upgrade_insecure_requests</td><td style="vertical-align:top;">:</td><td><div>1</div></td></tr><tr><td style="font-weight:bold;vertical-align:top;">http_user_agent</td><td style="vertical-align:top;">:</td><td><div>Mozilla/5.0 (X11; Linux x86_64) AppleWebKit/537.36 (KHTML, like Gecko) Chrome/47.0.2526.106 Safari/537.36</div></td></tr><tr><td style="font-weight:bold;vertical-align:top;">is_jython</td><td style="vertical-align:top;">:</td><td><div>False</div></td></tr><tr><td style="font-weight:bold;vertical-align:top;">is_pypy</td><td style="vertical-align:top;">:</td><td><div>False</div></td></tr><tr><td style="font-weight:bold;vertical-align:top;">is_source</td><td style="vertical-align:top;">:</td><td><div>True</div></td></tr><tr><td style="font-weight:bold;vertical-align:top;">local_hosts</td><td style="vertical-align:top;">:</td><td><div><table><tr><td><div>::1</div></td></tr><tr><td><div>127.0.1.1</div></td></tr><tr><td><div>::ffff:127.0.0.1</div></td></tr><tr><td><div>127.0.0.1</div></td></tr><tr><td><div>Gandalf</div></td></tr></table></div></td></tr><tr><td style="font-weight:bold;vertical-align:top;">path_info</td><td style="vertical-align:top;">:</td><td><div>/naturar/compuestos/buscar</div></td></tr><tr><td style="font-weight:bold;vertical-align:top;">query_string</td><td style="vertical-align:top;">:</td><td><div></div></td></tr><tr><td style="font-weight:bold;vertical-align:top;">remote_addr</td><td style="vertical-align:top;">:</td><td><div>127.0.0.1</div></td></tr><tr><td style="font-weight:bold;vertical-align:top;">remote_port</td><td style="vertical-align:top;">:</td><td><div>35283</div></td></tr><tr><td style="font-weight:bold;vertical-align:top;">request_method</td><td style="vertical-align:top;">:</td><td><div>GET</div></td></tr><tr><td style="font-weight:bold;vertical-align:top;">request_uri</td><td style="vertical-align:top;">:</td><td><div>/naturar/compuestos/buscar</div></td></tr><tr><td style="font-weight:bold;vertical-align:top;">script_name</td><td style="vertical-align:top;">:</td><td><div></div></td></tr><tr><td style="font-weight:bold;vertical-align:top;">server_name</td><td style="vertical-align:top;">:</td><td><div>Gandalf</div></td></tr><tr><td style="font-weight:bold;vertical-align:top;">server_port</td><td style="vertical-align:top;">:</td><td><div>8000</div></td></tr><tr><td style="font-weight:bold;vertical-align:top;">server_protocol</td><td style="vertical-align:top;">:</td><td><div>HTTP/1.1</div></td></tr><tr><td style="font-weight:bold;vertical-align:top;">server_software</td><td style="vertical-align:top;">:</td><td><div>Rocket 1.2.6</div></td></tr><tr><td style="font-weight:bold;vertical-align:top;">web2py_path</td><td style="vertical-align:top;">:</td><td><div>/home/www-data/web2py</div></td></tr><tr><td style="font-weight:bold;vertical-align:top;">web2py_version</td><td style="vertical-align:top;">:</td><td><div>2.11.2-stable+timestamp.2015.05.30.16.33.24</div></td></tr><tr><td style="font-weight:bold;vertical-align:top;">wsgi.errors</td><td style="vertical-align:top;">:</td><td><div>&lt;open file &#x27;&lt;stderr&gt;&#x27;, mode &#x27;w&#x27; at 0x7f0976aa61e0&gt;</div></td></tr><tr><td style="font-weight:bold;vertical-align:top;">wsgi.file_wrapper</td><td style="vertical-align:top;">:</td><td><div>&lt;class wsgiref.util.FileWrapper at 0x7f096aab14c8&gt;</div></td></tr><tr><td style="font-weight:bold;vertical-align:top;">wsgi.input</td><td style="vertical-align:top;">:</td><td><div>&lt;socket._fileobject object at 0x7f091d1036d0&gt;</div></td></tr><tr><td style="font-weight:bold;vertical-align:top;">wsgi.multiprocess</td><td style="vertical-align:top;">:</td><td><div>False</div></td></tr><tr><td style="font-weight:bold;vertical-align:top;">wsgi.multithread</td><td style="vertical-align:top;">:</td><td><div>True</div></td></tr><tr><td style="font-weight:bold;vertical-align:top;">wsgi.run_once</td><td style="vertical-align:top;">:</td><td><div>False</div></td></tr><tr><td style="font-weight:bold;vertical-align:top;">wsgi.url_scheme</td><td style="vertical-align:top;">:</td><td><div>http</div></td></tr><tr><td style="font-weight:bold;vertical-align:top;">wsgi.version</td><td style="vertical-align:top;">:</td><td><div><table><tr><td><div>1</div></td></tr><tr><td><div>0</div></td></tr></table></div></td></tr><tr><td style="font-weight:bold;vertical-align:top;">wsgi_errors</td><td style="vertical-align:top;">:</td><td><div>&lt;open file &#x27;&lt;stderr&gt;&#x27;, mode &#x27;w&#x27; at 0x7f0976aa61e0&gt;</div></td></tr><tr><td style="font-weight:bold;vertical-align:top;">wsgi_file_wrapper</td><td style="vertical-align:top;">:</td><td><div>&lt;class wsgiref.util.FileWrapper at 0x7f096aab14c8&gt;</div></td></tr><tr><td style="font-weight:bold;vertical-align:top;">wsgi_input</td><td style="vertical-align:top;">:</td><td><div>&lt;socket._fileobject object at 0x7f091d1036d0&gt;</div></td></tr><tr><td style="font-weight:bold;vertical-align:top;">wsgi_multiprocess</td><td style="vertical-align:top;">:</td><td><div>False</div></td></tr><tr><td style="font-weight:bold;vertical-align:top;">wsgi_multithread</td><td style="vertical-align:top;">:</td><td><div>True</div></td></tr><tr><td style="font-weight:bold;vertical-align:top;">wsgi_run_once</td><td style="vertical-align:top;">:</td><td><div>False</div></td></tr><tr><td style="font-weight:bold;vertical-align:top;">wsgi_url_scheme</td><td style="vertical-align:top;">:</td><td><div>http</div></td></tr><tr><td style="font-weight:bold;vertical-align:top;">wsgi_version</td><td style="vertical-align:top;">:</td><td><div><table><tr><td><div>1</div></td></tr><tr><td><div>0</div></td></tr></table></div></td></tr></table></div></td></tr><tr><td style="font-weight:bold;vertical-align:top;">extension</td><td style="vertical-align:top;">:</td><td><div>html</div></td></tr><tr><td style="font-weight:bold;vertical-align:top;">folder</td><td style="vertical-align:top;">:</td><td><div>/home/www-data/web2py/applications/naturar/</div></td></tr><tr><td style="font-weight:bold;vertical-align:top;">function</td><td style="vertical-align:top;">:</td><td><div>buscar</div></td></tr><tr><td style="font-weight:bold;vertical-align:top;">global_settings</td><td style="vertical-align:top;">:</td><td><div><table><tr><td style="font-weight:bold;vertical-align:top;">app_folders</td><td style="vertical-align:top;">:</td><td><div>set([&#x27;/home/www-data/web2py/applications/welcome/&#x27;, &#x27;/home/www-data/web2py/applications/naturar/&#x27;, &#x27;/home/www-data/web2py/applications/admin/&#x27;])</div></td></tr><tr><td style="font-weight:bold;vertical-align:top;">applications_parent</td><td style="vertical-align:top;">:</td><td><div>/home/www-data/web2py</div></td></tr><tr><td style="font-weight:bold;vertical-align:top;">cmd_args</td><td style="vertical-align:top;">:</td><td><div><table></table></div></td></tr><tr><td style="font-weight:bold;vertical-align:top;">cmd_options</td><td style="vertical-align:top;">:</td><td><div>&lt;Values at 0x7f096a816f38: {&#x27;verbose&#x27;: False, &#x27;ip&#x27;: &#x27;127.0.0.1&#x27;, &#x27;debuglevel&#x27;: 30, &#x27;with_scheduler&#x27;: False, &#x27;ips&#x27;: [&#x27;127.0.1.1&#x27;], &#x27;shutdown_timeout&#x27;: 5, &#x27;taskbar&#x27;: False, &#x27;with_coverage&#x27;: False, &#x27;scheduler_groups&#x27;: None, &#x27;port&#x27;: 8000, &#x27;maxthreads&#x27;: None, &#x27;softcron&#x27;: False, &#x27;server_name&#x27;: &#x27;Gandalf&#x27;, &#x27;bpython&#x27;: False, &#x27;nogui&#x27;: False, &#x27;pid_filename&#x27;: &#x27;httpserver.pid&#x27;, &#x27;print_errors&#x27;: False, &#x27;extcron&#x27;: False, &#x27;runcron&#x27;: False, &#x27;run_system_tests&#x27;: False, &#x27;test&#x27;: None, &#x27;folder&#x27;: &#x27;/home/www-data/web2py&#x27;, &#x27;config&#x27;: &#x27;&#x27;, &#x27;minthreads&#x27;: None, &#x27;shell&#x27;: None, &#x27;run&#x27;: &#x27;&#x27;, &#x27;log_filename&#x27;: &#x27;httpserver.log&#x27;, &#x27;profiler_dir&#x27;: None, &#x27;args&#x27;: [&#x27;&#x27;], &#x27;socket_timeout&#x27;: 5, &#x27;ssl_ca_certificate&#x27;: None, &#x27;scheduler&#x27;: None, &#x27;interfaces&#x27;: None, &#x27;ssl_private_key&#x27;: &#x27;&#x27;, &#x27;gae&#x27;: None, &#x27;password&#x27;: &#x27;&lt;ask&gt;&#x27;, &#x27;request_queue_size&#x27;: 5, &#x27;ssl_certificate&#x27;: &#x27;&#x27;, &#x27;cronjob&#x27;: False, &#x27;numthreads&#x27;: None, &#x27;quiet&#x27;: False, &#x27;import_models&#x27;: False, &#x27;timeout&#x27;: 10, &#x27;plain&#x27;: False, &#x27;nobanner&#x27;: False}&gt;</div></td></tr><tr><td style="font-weight:bold;vertical-align:top;">db_sessions</td><td style="vertical-align:top;">:</td><td><div>set([])</div></td></tr><tr><td style="font-weight:bold;vertical-align:top;">debugging</td><td style="vertical-align:top;">:</td><td><div>False</div></td></tr><tr><td style="font-weight:bold;vertical-align:top;">gluon_parent</td><td style="vertical-align:top;">:</td><td><div>/home/www-data/web2py</div></td></tr><tr><td style="font-weight:bold;vertical-align:top;">is_jython</td><td style="vertical-align:top;">:</td><td><div>False</div></td></tr><tr><td style="font-weight:bold;vertical-align:top;">is_pypy</td><td style="vertical-align:top;">:</td><td><div>False</div></td></tr><tr><td style="font-weight:bold;vertical-align:top;">is_source</td><td style="vertical-align:top;">:</td><td><div>True</div></td></tr><tr><td style="font-weight:bold;vertical-align:top;">local_hosts</td><td style="vertical-align:top;">:</td><td><div><table><tr><td><div>::1</div></td></tr><tr><td><div>127.0.1.1</div></td></tr><tr><td><div>::ffff:127.0.0.1</div></td></tr><tr><td><div>127.0.0.1</div></td></tr><tr><td><div>Gandalf</div></td></tr></table></div></td></tr><tr><td style="font-weight:bold;vertical-align:top;">web2py_version</td><td style="vertical-align:top;">:</td><td><div>2.11.2-stable+timestamp.2015.05.30.16.33.24</div></td></tr></table></div></td></tr><tr><td style="font-weight:bold;vertical-align:top;">is_https</td><td style="vertical-align:top;">:</td><td><div>False</div></td></tr><tr><td style="font-weight:bold;vertical-align:top;">is_local</td><td style="vertical-align:top;">:</td><td><div>True</div></td></tr><tr><td style="font-weight:bold;vertical-align:top;">is_restful</td><td style="vertical-align:top;">:</td><td><div>False</div></td></tr><tr><td style="font-weight:bold;vertical-align:top;">is_sheduler</td><td style="vertical-align:top;">:</td><td><div>None</div></td></tr><tr><td style="font-weight:bold;vertical-align:top;">is_shell</td><td style="vertical-align:top;">:</td><td><div>None</div></td></tr><tr><td style="font-weight:bold;vertical-align:top;">now</td><td style="vertical-align:top;">:</td><td><div>datetime.datetime(2016, 1, 26, 10, 28, 33, 65116)</div></td></tr><tr><td style="font-weight:bold;vertical-align:top;">raw_args</td><td style="vertical-align:top;">:</td><td><div></div></td></tr><tr><td style="font-weight:bold;vertical-align:top;">raw_extension</td><td style="vertical-align:top;">:</td><td><div>None</div></td></tr><tr><td style="font-weight:bold;vertical-align:top;">url</td><td style="vertical-align:top;">:</td><td><div>/naturar/compuestos/buscar</div></td></tr><tr><td style="font-weight:bold;vertical-align:top;">utcnow</td><td style="vertical-align:top;">:</td><td><div>datetime.datetime(2016, 1, 26, 13, 28, 33, 65133)</div></td></tr><tr><td style="font-weight:bold;vertical-align:top;">wsgi</td><td style="vertical-align:top;">:</td><td><div>&lt;gluon.main.LazyWSGI object at 0x7f091cc3b750&gt;</div></td></tr></table></div>'
tRp70
sS'frames'
p71
(lp72
(dp73
S'file'
p74
S'/home/www-data/web2py/gluon/restricted.py'
p75
sS'dump'
p76
(dp77
S'environment'
p78
S"{'A': <class 'gluon.html.A'>, 'ANY_OF': <class 'gluon.validators.ANY_OF'>, 'ASSIGNJS': <function ASSIGNJS>, 'AppConfig': <function AppConfig>, 'Auth': <class 'gluon.tools.Auth'>, 'B': <class 'gluon.html.B'>, 'BEAUTIFY': <class 'gluon.html.BEAUTIFY'>, 'BODY': <class 'gluon.html.BODY'>, 'BR': <class 'gluon.html.BR'>, 'BUTTON': <class 'gluon.html.BUTTON'>, ...}"
p79
sS'ccode'
p80
S'<code object <module> at 0x7f091d1037b0, file "/...b2py/applications/naturar/models/db.py", line 13>'
p81
ssS'lnum'
p82
I227
sS'lines'
p83
(dp84
I224
S'            ccode = code'
p85
sI225
S'        else:'
p86
sI226
S'            ccode = compile2(code, layer)'
p87
sI227
S'        exec ccode in environment'
p88
sI228
S'    except HTTP:'
p89
sI229
S'        raise'
p90
sI230
S'    except RestrictedError:'
p91
sI231
S'        # do not encapsulate (obfuscate) the original RestrictedError'
p92
sI222
S'    try:'
p93
sI223
S'        if isinstance(code, types.CodeType):'
p94
ssS'call'
p95
S"(code='# -*- coding: utf-8 -*-\\n\\n#######################...auditing\\n#~ auth.enable_record_versioning(db)\\n\\n\\n\\n', environment={'A': <class 'gluon.html.A'>, 'ANY_OF': <class 'gluon.validators.ANY_OF'>, 'ASSIGNJS': <function ASSIGNJS>, 'AppConfig': <function AppConfig>, 'Auth': <class 'gluon.tools.Auth'>, 'B': <class 'gluon.html.B'>, 'BEAUTIFY': <class 'gluon.html.BEAUTIFY'>, 'BODY': <class 'gluon.html.BODY'>, 'BR': <class 'gluon.html.BR'>, 'BUTTON': <class 'gluon.html.BUTTON'>, ...}, layer='/home/www-data/web2py/applications/naturar/models/db.py')"
p96
sS'func'
p97
S'restricted'
p98
sa(dp99
g74
S'/home/www-data/web2py/applications/naturar/models/db.py'
p100
sg76
(dp101
S'Field'
p102
S"<class 'pydal.objects.Field'>"
p103
ssg82
I479
sg83
(dp104
I480
S"    Field('logo'),"
p105
sI481
S'    )'
p106
sI482
S''
sI483
S"'''"
p107
sI474
S"    Field('institution'),"
p108
sI475
S"    Field('webpage'),"
p109
sI476
S"    Field('email'),"
p110
sI477
S"    Field('telephone'),"
p111
sI478
S"    Field('address'),"
p112
sI479
S"    Field('location_id' 'reference location'),"
p113
ssg95
S'()'
p114
sg97
S'<module>'
p115
sa(dp116
g74
S'/home/www-data/web2py/gluon/packages/dal/pydal/objects.py'
p117
sg76
(dp118
S'fieldname'
p119
S"'location_idreference location'"
p120
ssg82
I1411
sg83
(dp121
I1408
S'            or REGEX_PYTHON_KEYWORDS.match(fieldname)'
p122
sI1409
S'            ):'
p123
sI1410
S"            raise SyntaxError('Field: invalid field name: %s, '"
p124
sI1411
S'                              \'use rname for "funny" names\' % fieldname)'
p125
sI1412
S''
sI1413
S'        if not isinstance(type, (Table, Field)):'
p126
sI1414
S'            self.type = type'
p127
sI1415
S'        else:'
p128
sI1406
S'        if (not isinstance(fieldname, str) or hasattr(Table, fieldname)'
p129
sI1407
S'            or not REGEX_VALID_TB_FLD.match(fieldname)'
p130
ssg95
S"(self=<pydal.objects.Field object>, fieldname='location_idreference location', type='string', length=None, default=<function <lambda>>, required=False, requires=<function <lambda>>, ondelete='CASCADE', notnull=False, unique=False, uploadfield=True, widget=None, label=None, comment=None, writable=True, readable=True, update=None, authorize=None, autodelete=False, represent=None, uploadfolder=None, uploadseparate=False, uploadfs=None, compute=None, custom_store=None, custom_retrieve=None, custom_retrieve_file_properties=None, custom_delete=None, filter_in=None, filter_out=None, custom_qualifier=None, map_none=None, rname=None)"
p131
sg97
g24
sasS'pyver'
p132
S'Python 2.7.6: /usr/bin/python (prefix: /usr)'
p133
sS'session'
p134
g69
(S's\x1a\x00\x00\x00<div><table></table></div>'
tRp135
sS'etype'
p136
S"<type 'exceptions.SyntaxError'>"
p137
sS'date'
p138
S'Tue Jan 26 10:28:33 2016'
p139
sS'response'
p140
g69
(S's\x02\x18\x00\x00<div><table><tr><td style="font-weight:bold;vertical-align:top;">body</td><td style="vertical-align:top;">:</td><td><div>&lt;cStringIO.StringO object at 0x7f091cbce030&gt;</div></td></tr><tr><td style="font-weight:bold;vertical-align:top;">cookies</td><td style="vertical-align:top;">:</td><td><div><table><tr><td style="font-weight:bold;vertical-align:top;">session_id_naturar</td><td style="vertical-align:top;">:</td><td><div>127.0.0.1-04a0b155-1236-48c7-863d-066aaaace2b9<table><tr><td style="font-weight:bold;vertical-align:top;">comment</td><td style="vertical-align:top;">:</td><td><div></div></td></tr><tr><td style="font-weight:bold;vertical-align:top;">domain</td><td style="vertical-align:top;">:</td><td><div></div></td></tr><tr><td style="font-weight:bold;vertical-align:top;">expires</td><td style="vertical-align:top;">:</td><td><div></div></td></tr><tr><td style="font-weight:bold;vertical-align:top;">httponly</td><td style="vertical-align:top;">:</td><td><div></div></td></tr><tr><td style="font-weight:bold;vertical-align:top;">max-age</td><td style="vertical-align:top;">:</td><td><div></div></td></tr><tr><td style="font-weight:bold;vertical-align:top;">path</td><td style="vertical-align:top;">:</td><td><div>/</div></td></tr><tr><td style="font-weight:bold;vertical-align:top;">secure</td><td style="vertical-align:top;">:</td><td><div></div></td></tr><tr><td style="font-weight:bold;vertical-align:top;">version</td><td style="vertical-align:top;">:</td><td><div></div></td></tr></table></div></td></tr></table></div></td></tr><tr><td style="font-weight:bold;vertical-align:top;">delimiters</td><td style="vertical-align:top;">:</td><td><div><table><tr><td><div>{{</div></td></tr><tr><td><div>}}</div></td></tr></table></div></td></tr><tr><td style="font-weight:bold;vertical-align:top;">files</td><td style="vertical-align:top;">:</td><td><div><table></table></div></td></tr><tr><td style="font-weight:bold;vertical-align:top;">flash</td><td style="vertical-align:top;">:</td><td><div></div></td></tr><tr><td style="font-weight:bold;vertical-align:top;">form_label_separator</td><td style="vertical-align:top;">:</td><td><div></div></td></tr><tr><td style="font-weight:bold;vertical-align:top;">formstyle</td><td style="vertical-align:top;">:</td><td><div>bootstrap3_inline</div></td></tr><tr><td style="font-weight:bold;vertical-align:top;">generic_patterns</td><td style="vertical-align:top;">:</td><td><div><table><tr><td><div>*</div></td></tr></table></div></td></tr><tr><td style="font-weight:bold;vertical-align:top;">headers</td><td style="vertical-align:top;">:</td><td><div><table><tr><td style="font-weight:bold;vertical-align:top;">X-Powered-By</td><td style="vertical-align:top;">:</td><td><div>web2py</div></td></tr></table></div></td></tr><tr><td style="font-weight:bold;vertical-align:top;">menu</td><td style="vertical-align:top;">:</td><td><div><table></table></div></td></tr><tr><td style="font-weight:bold;vertical-align:top;">meta</td><td style="vertical-align:top;">:</td><td><div><table></table></div></td></tr><tr><td style="font-weight:bold;vertical-align:top;">models_to_run</td><td style="vertical-align:top;">:</td><td><div><table><tr><td><div>^\\w+\\.py$</div></td></tr><tr><td><div>^compuestos/\\w+\\.py$</div></td></tr><tr><td><div>^compuestos/buscar/\\w+\\.py$</div></td></tr></table></div></td></tr><tr><td style="font-weight:bold;vertical-align:top;">postprocessing</td><td style="vertical-align:top;">:</td><td><div><table></table></div></td></tr><tr><td style="font-weight:bold;vertical-align:top;">session_client</td><td style="vertical-align:top;">:</td><td><div>127.0.0.1</div></td></tr><tr><td style="font-weight:bold;vertical-align:top;">session_cookie_compression_level</td><td style="vertical-align:top;">:</td><td><div>None</div></td></tr><tr><td style="font-weight:bold;vertical-align:top;">session_cookie_expires</td><td style="vertical-align:top;">:</td><td><div>None</div></td></tr><tr><td style="font-weight:bold;vertical-align:top;">session_cookie_key</td><td style="vertical-align:top;">:</td><td><div>None</div></td></tr><tr><td style="font-weight:bold;vertical-align:top;">session_data_name</td><td style="vertical-align:top;">:</td><td><div>session_data_naturar</div></td></tr><tr><td style="font-weight:bold;vertical-align:top;">session_file</td><td style="vertical-align:top;">:</td><td><div>&lt;open file &#x27;/home/www-data/web2py/applications/naturar/sessions/0e1/018/127.0.0.1-04a0b155-1236-48c7-863d-066aaaace2b9&#x27;, mode &#x27;rb+&#x27; at 0x7f091cebd8a0&gt;</div></td></tr><tr><td style="font-weight:bold;vertical-align:top;">session_filename</td><td style="vertical-align:top;">:</td><td><div>/home/www-data/web2py/applications/naturar/sessions/127.0.0.1-04a0b155-1236-48c7-863d-066aaaace2b9</div></td></tr><tr><td style="font-weight:bold;vertical-align:top;">session_hash</td><td style="vertical-align:top;">:</td><td><div>12829ed4ad4d131870cc0bb239ce1b3d</div></td></tr><tr><td style="font-weight:bold;vertical-align:top;">session_id</td><td style="vertical-align:top;">:</td><td><div>127.0.0.1-04a0b155-1236-48c7-863d-066aaaace2b9</div></td></tr><tr><td style="font-weight:bold;vertical-align:top;">session_id_name</td><td style="vertical-align:top;">:</td><td><div>session_id_naturar</div></td></tr><tr><td style="font-weight:bold;vertical-align:top;">session_locked</td><td style="vertical-align:top;">:</td><td><div>True</div></td></tr><tr><td style="font-weight:bold;vertical-align:top;">session_masterapp</td><td style="vertical-align:top;">:</td><td><div>naturar</div></td></tr><tr><td style="font-weight:bold;vertical-align:top;">session_new</td><td style="vertical-align:top;">:</td><td><div>False</div></td></tr><tr><td style="font-weight:bold;vertical-align:top;">session_storage_type</td><td style="vertical-align:top;">:</td><td><div>file</div></td></tr><tr><td style="font-weight:bold;vertical-align:top;">status</td><td style="vertical-align:top;">:</td><td><div>200</div></td></tr><tr><td style="font-weight:bold;vertical-align:top;">view</td><td style="vertical-align:top;">:</td><td><div>compuestos/buscar.html</div></td></tr></table></div>'
tRp141
sS'locals'
p142
(dp143
S'authorize'
p144
S'None'
p145
sS'represent'
p146
S'None'
p147
sS'rname'
p148
S'None'
p149
sS'autodelete'
p150
S'False'
p151
sS'filter_out'
p152
S'None'
p153
sS'uploadseparate'
p154
g151
sS'ondelete'
p155
S"'CASCADE'"
p156
sS'uploadfs'
p157
S'None'
p158
sS'custom_delete'
p159
S'None'
p160
sS'uploadfield'
p161
S'True'
p162
sS'uploadfolder'
p163
S'None'
p164
sS'custom_qualifier'
p165
S'None'
p166
sS'map_none'
p167
S'None'
p168
sS'self'
p169
S'<pydal.objects.Field object>'
p170
sS'readable'
p171
g162
sS'label'
p172
S'None'
p173
sS'notnull'
p174
g151
sS'custom_retrieve_file_properties'
p175
S'None'
p176
sS'filter_in'
p177
S'None'
p178
sS'widget'
p179
S'None'
p180
sS'custom_store'
p181
S'None'
p182
sS'custom_retrieve'
p183
S'None'
p184
sS'update'
p185
S'None'
p186
sS'unique'
p187
g151
sS'writable'
p188
g162
sS'compute'
p189
S'None'
p190
sS'default'
p191
S'<function <lambda>>'
p192
sS'type'
p193
S"'string'"
p194
sS'required'
p195
g151
sS'comment'
p196
S'None'
p197
sS'length'
p198
S'None'
p199
sS'fieldname'
p200
S"'location_idreference location'"
p201
sS'requires'
p202
S'<function <lambda>>'
p203
sssS'traceback'
p204
S'Traceback (most recent call last):\n  File "/home/www-data/web2py/gluon/restricted.py", line 227, in restricted\n    exec ccode in environment\n  File "/home/www-data/web2py/applications/naturar/models/db.py", line 479, in <module>\n    Field(\'location_id\' \'reference location\'),\n  File "/home/www-data/web2py/gluon/packages/dal/pydal/objects.py", line 1411, in __init__\n    \'use rname for "funny" names\' % fieldname)\nSyntaxError: Field: invalid field name: location_idreference location, use rname for "funny" names\n'
p205
s.