(dp1
S'output'
p2
S"<type 'exceptions.IndentationError'> unexpected indent (compuestos.py, line 516)"
p3
sS'layer'
p4
S'/mnt/web2py/applications/naturardb/controllers/compuestos.py'
p5
sS'code'
p6
S'# -*- coding: utf-8 -*-\n# this file is released under public domain and you can use without limitations\n\n#########################################################################\n## This is a sample controller\n## - index is the default action of any application\n## - user is required for authentication and authorization\n## - download is for downloading files uploaded in the db (does streaming)\n#########################################################################\nfrom rdkit import Chem\nfrom rdkit.Chem import Draw\nfrom rdkit.Chem import AllChem\nimport os.path \n\n#~ def list_molecules():\n    #~ """\n    #~ show compound like a image grid\n    #~ """\n    #~ if len(request.args): page=int(request.args[0])\n    #~ else: page=0\n    #~ items_per_page=5\n    #~ limitby=(page*items_per_page,(page+1)*items_per_page+1)\n    #~ rows=db().select(db.compound.ALL,limitby=limitby)\n    #~ return dict(rows=rows,page=page,items_per_page=items_per_page)\n\n\ndef list_molecules2():\n    grid = SQLFORM.smartgrid(db.compound, paginate=5)\n    return locals()\n\n#~ @auth.requires_membership(\'managers\')\ndef buscar():\n    """\n    action to show a list of compounds\n    """\n    imagewidth = 70\n    imageheight = 70\n    request.is_local =False\n    #extract of http://stackoverflow.com/questions/21447804/web2py-sqlform-grid-edit-page\n    db.compound.id.readable = False\n    db.compound.id.writeable = False\n \n\n    form = SQLFORM.grid(\n        query=db.compound,\n        formname="compound",\n        editable = auth.has_membership(\'managers\'),\n        deletable = auth.has_membership(\'managers\'),\n        buttons_placement = \'left\',\n        paginate = 5,\n        searchable= dict(smiles=True, extract=False),\n        links=[dict(header=T(\'Image\'), body = lambda row: \n        DIV(A(IMG(_src=URL(\'static\',row.imagepath), \n        _width=imagewidth, _height=imageheight),_href="localhost"),_class="img-zoom"))])\n        \n   \n   \n    #if "view" in request.args(0)request.env.request_uri:\n    #~ try:\n    if request.args(0):\n        if "view" in request.args(0):\n            record_id = form.view_form.record_id \n            # Properties selection\n            table = db(db.compound_property.compound_id==record_id).select(\n                db.compoundproperty.molecular_weight,\n                db.compoundproperty.molecular_formula,\n                db.compoundproperty.molecular_volume,\n                db.compoundproperty.smiles,\n                db.compoundproperty.clogp,\n                db.compoundproperty.xlogp,\n                db.compoundproperty.tpsa,\n                db.compoundproperty.hbd,\n                db.compoundproperty.hba,\n                db.compoundproperty.num_rotatables_bonds,\n                db.compoundproperty.aromatic_rings,\n                db.compoundproperty.num_n,\n                db.compoundproperty.num_o,\n                db.compoundproperty.num_s,\n                db.compoundproperty.num_ro5_violations,\n            )        \n            properties = rows_transpose(table)\n            \n            # Docs selection\n            docs_id = db(db.compound.id==record_id).select(db.compound.docs)\n            try:\n                table = db(db.doc.id.belongs(docs_id.first().docs)).select(\n                    db.doc.journal,\n                    db.doc.year,\n                    db.doc.volume,\n                    db.doc.issue,\n                    db.doc.first_page,\n                    db.doc.last_page,\n                    db.doc.doi,\n                    db.doc.pubmed_id,\n                    db.doc.title,\n                    db.doc.doc_type,\n                    db.doc.authors,\n                    db.doc.abstract,\n                )            \n                docs = rows_transpose(table)\n            except:\n                docs=None\n\n    else:\n        properties = ""\n        docs = ""\n    \n    \n    print doi2doc("10.1016/j.molstruc.2014.10.054")[\'message\'][\'author\']\n   \n    return dict(form=form, properties=properties, docs=docs)\n    \ndef buscar2():\n    """\n    action to show a list of compounds\n    """\n    imagewidth = 70\n    imageheight = 70\n    request.is_local =False\n    #extract of http://stackoverflow.com/questions/21447804/web2py-sqlform-grid-edit-page\n    db.compound.id.readable = False\n    db.compound.id.writeable = False\n \n\n    form = SQLFORM.smartgrid(db.compound,\n        #~ left=db.extract_record.extract_name(db.extract_record.id==db.compound.extract),\n        editable = auth.has_membership(\'managers\'),\n        deletable = auth.has_membership(\'managers\'),\n        buttons_placement = \'left\',\n        paginate = 5,\n        searchable= dict(smiles=True, extract=False),\n        #~ links=[dict(header=T(\'Image\'), body = lambda row: \n        #~ DIV(A(IMG(_src=URL(\'static\',row.imagepath), \n        #~ _width=imagewidth, _height=imageheight),_href="localhost"),_class="img-zoom"))]\n        )\n               \n\n    print calculate_descriptors("NN")\n   \n    return dict(form=form)    \n    \n\ndef custom_search():\n    \'\'\'\n    Implements SQLFORM.grid custom search \n        WITHOUT specifying a custom search_widget,\n            and so needing to read & understand the clever web2py implementation source code.\n    The custom_search.html view contains the EASIER TO UNDERSTAND customization code.\n    The technique:\n        1. Make the grid\'s Standard Search Input hidden.\n        2. Define Custom Search Input elements \n            with onchange events that \n                send their values to the to the hidden Standard Search Input.\n    \'\'\'\n    query=((db.compound.id > 0))\n    fields = (db.compound.id, \n        db.compound.isosmiles, \n        db.compound.name, \n        )\n \n    headers = {\'compound.id\':   \'ID\',\n           \'compound.smiles\': \'Last Name\',\n           \'db.compound.name\': \'Primary Phone\',\n           }    \n    init_sort_order=[db.compound.name]   \n \n    grid = SQLFORM.grid(query=query, \n        fields=fields, \n        headers=headers, \n        orderby=init_sort_order,\n        searchable=True,  \n        user_signature=False, \n        create=True, deletable=False, editable=True, maxtextlength=100, paginate=25)\n \n    return dict(grid=grid)  \n\n\n\n\ndef manage_packages():\n    if request.args(0) == \'new\' and request.args(1) == \'compound\':\n\n        # (1) Get available docs\n        docs = [(r.id, r.title) for r in db(db.doc).select()]\n        print docs\n\n        # (2) Build the form\n        form = SQLFORM.factory(\n            db.compound,\n            Field(\'doc\',\n                requires=IS_IN_SET(docs, multiple=True)\n            )\n        )\n\n        # (3) Validate form data\n        if form.process().accepted:\n\n            # (4) Insert compound\n            compound_id = db.compound.insert(\n                **db.compound._filter_fields(form.vars))\n\n            if compound_id and form.vars.docs:\n\n                # (5) Insert component package associations\n                for doc_id in form.vars.docs:\n                    existing_doc = db.doc(doc_id)\n\n                    if existing_doc:\n                        db.r_compound_doc.insert(\n                            compound_id=compound_id,\n                            doc_id=existing_doc\n                        )\n\n                response.flash = \'Package has been created successfully.\'\n\n        content = form\n    else:\n        content = SQLFORM.grid(db.compound)\n\n    return dict(content=content)\n\n\n\ndef two_forms():\n    \n    form1 = FORM(INPUT(_name=\'form_one\', requires=IS_NOT_EMPTY()),\n               INPUT(_type=\'submit\'))\n    form2 = FORM(INPUT(_name=\'form_two\', requires=IS_NOT_EMPTY()),\n               INPUT(_type=\'submit\'))\n    form3 = SQLFORM.grid(query=db.compound,\n        formname="compound_doc")\n\n    if form1.process(formname=\'form_one\').accepted:\n        response.flash = \'form one accepted\'\n    if form2.process(formname=\'form_two\').accepted:\n        response.flash = \'form two accepted\'\n    return dict(form1=form1, form2=form2, form3=form3)\n    \n    \ndef upload():\n     # (1) Get available components\n    compounds = [(r.id, r.compoundname) for r in db(db.compound).select()]\n\n    # (2) Build the form\n    form = SQLFORM.factory(\n        db.classification,\n        Field(\n            \'compounds\',\n            requires=IS_IN_SET(compounds, multiple=True)\n        )\n    )\n    print compounds\n\n    # (3) Validate form data\n    if form.process().accepted:\n\n        # (4) Insert package\n        classification_id = db.classification.insert(\n            **db.classification._filter_fields(form.vars))\n\n        if classification_id and form.vars.compounds:\n\n            # (5) Insert component package associations\n            for compound_id in form.vars.compounds:\n                existing_compound = db.compound(compound_id)\n\n                if existing_compound:\n                    db.compound_classification.insert(\n                        classification_id=classification_id,\n                        compound_id=existing_compound\n                    )\n\n            response.flash = \'Package has been created successfully.\'\n\n    content = form\n    #~ else:\n        #~ content = SQLFORM.grid(db.classification)\n\n    return dict(content=content)\n    \ndef upload2():\n     # (1) Get available classifications\n    classifications = [(r.id, r.classificationname) for r in db(db.classification).select()]\n    chemicalclasses = [(r.id, r.classname_en) for r in db(db.chemicalclass).select()]\n    #~ extracts = [(r.id, r.extractname) for r in db(db.chemicalclass).select()]\n\n    # (2) Build the form\n    form = SQLFORM.factory(\n        db.compound,\n        Field(\'classifications\',\n            requires=IS_IN_SET(classifications, multiple=True)),\n        Field(\'chemicalclasses\',\n            requires=IS_IN_SET(chemicalclasses, multiple=True)),\n        Field(\'synonyms\', type=\'text\', requires=IS_NOT_EMPTY()),\n    )\n    # (3) Validate form data\n    if form.process().accepted:\n\n        # (4) Insert compound\n        compound_id = db.compound.insert(\n            **db.compound._filter_fields(form.vars))\n        \n        # (5) Insert compound_classification associations\n        if compound_id and form.vars.classifications:\n            for classification_id in form.vars.classifications:\n                existing_classification = db.classification(classification_id)\n                if existing_classification:\n                    db.compound_classification.insert(\n                        compound_id=compound_id,\n                        classification_id=existing_classification)\n                        \n        # (6) Insert compound_chemicalclass associations\n            \n        if compound_id and form.vars.chemicalclasses:\n            for chemicalclass_id in form.vars.chemicalclasses:\n                existing_chemicalclass = db.chemicalclass(chemicalclass_id)\n                if existing_chemicalclass:\n                    db.compound_chemicalclass.insert(\n                        compound_id=compound_id,\n                        chemicalclass_id=existing_chemicalclass)\n                        \n        # (7) Insert synonyms\n        if compound_id and form.vars.synonyms:\n            synonymlist = form.vars.synonyms.split(\'\\n\')\n            for synonym in synonymlist:\n                db.synonym.insert(\n                    compound_id=compound_id,\n                    synonymname=str(synonym).strip(\'\\r\'))\n                        \n\n        response.flash = T(\'Compound has been uploaded successfully.\')\n\n    content = form\n    #~ else:\n        #~ content = SQLFORM.grid(db.compound)\n\n    return dict(content=content)\n\n\n\n\ndef upload_molprocessing(form):\n        #check if extension file is .mol\n        if IS_UPLOAD_FILENAME(extension=\'mol\')(form.vars.molstructure)[1] == None:\n            #check if file is a mol file in correct format\n            if is_valid_ctab(form.vars.molstructure.value) == True: \n                pass\n            #~ inputmolrdkit = Chem.MolFromMolFile(form.vars.molstructure.file)\n            #~ inputmolfile = os.path.join(request.folder,\'static/temp/\') + form.vars.molstructure\n            else:\n                form.errors.molstructure = T(\'You must introduce a mol structure file with correct format.\')\n        elif form.vars.isosmiles:\n            if is_valid_smiles(form.vars.isosmiles)==True:\n                pass\n            else: \n                form.errors.isosmiles = T(\'SMILES has an error, please check\')\n        else:\n            form.errors.isosmiles = T(\'You must introduce an structure using an smiles or uploading a file\') \n            \n             \n\ndef upload3():\n  \n    # (1) Get available classifications\n    classifications = [(r.id, r.classificationname) for r in db(db.classification).select()]\n    chemicalclasses = [(r.id, r.classname_en) for r in db(db.chemicalclass).select()]\n    #~ extracts = [(r.id, r.extractname) for r in db(db.chemicalclass).select()]\n\n    # (2) Build the form\n    form = SQLFORM.factory(\n        Field(\'molstructure\', type=\'upload\', uploadfolder=os.path.join(request.folder,\'static/temp\')), \n        #~ requires = IS_UPLOAD_FILENAME(extension=\'mol\')),\n        db.compound,\n        Field(\'classifications\',\n            requires=IS_IN_SET(classifications, multiple=True)),\n        Field(\'chemicalclasses\',\n            requires=IS_IN_SET(chemicalclasses, multiple=True)),\n        #~ Field(\'inputselector\',requires=IS_IN_SET([\'Smile\',\'Draw\',\'File\']),widget=SQLFORM.widgets.radio.widget),\n        Field(\'synonyms\', type=\'list:string\', requires=IS_NOT_EMPTY()),\n    )\n    \n    # (3) Validate form data\n    if form.process(onvalidation=upload_molprocessing).accepted:\n\n        # (4) Insert compound\n        compound_id = db.compound.insert(\n            **db.compound._filter_fields(form.vars))\n        \n        # (5) Insert compound_classification associations\n        if compound_id and form.vars.classifications:\n            for classification_id in form.vars.classifications:\n                existing_classification = db.classification(classification_id)\n                if existing_classification:\n                    db.compound_classification.insert(\n                        compound_id=compound_id,\n                        classification_id=existing_classification)\n                        \n        # (6) Insert compound_chemicalclass associations\n        if compound_id and form.vars.chemicalclasses:\n            for chemicalclass_id in form.vars.chemicalclasses:\n                existing_chemicalclass = db.chemicalclass(chemicalclass_id)\n                if existing_chemicalclass:\n                    db.compound_chemicalclass.insert(\n                        compound_id=compound_id,\n                        chemicalclass_id=existing_chemicalclass)\n                        \n        # (7) Insert synonyms\n        if compound_id and form.vars.synonyms:\n            synonymlist = form.vars.synonyms\n            for synonym in synonymlist:\n                db.synonym.insert(\n                    compound_id=compound_id,\n                    synonymname=str(synonym).strip(\'\\r\'))\n        \n        # (8) Insert structure\n        if compound_id and form.vars.molstructure:\n            filename = os.path.join(request.folder,\'static/temp/\') + form.vars.molstructure\n            mol_data = file(filename,\'r\').read()\n            # RDKit mol\n            db.executesql("insert into structure (rdkitstructure,compound_id) VALUES (mol_from_ctab(\'%s\'::cstring), \'%i\');"%(mol_data,compound_id))\n            # MOL file\n            db.executesql("insert into structure3d (molfile,compound_id) VALUES (\'%s\'::cstring, \'%i\');"%(mol_data,compound_id))\n\n        elif compound_id and form.vars.isosmiles:\n            # RDKit mol\n            db.executesql("insert into structure (rdkitstructure,compound_id) VALUES (mol_from_smiles(\'%s\'::cstring), \'%i\');"%(form.vars.isosmiles,compound_id))\n            m2 = Chem.MolFromSmiles(form.vars.isosmiles)\n            m2 = Chem.AddHs(m2)\n            AllChem.EmbedMolecule(m2)\n            AllChem.UFFOptimizeMolecule(m2)\n            # MOL file\n            mol_data = Chem.MolToMolBlock(m2)\n            db.executesql("insert into structure3d (molfile,compound_id) VALUES (\'%s\'::cstring, \'%i\');"%(mol_data,compound_id))\n            \n            \n        #~ inputmolfile = os.path.join(request.folder,\'static/temp/\') + form.vars.molstructure\n        #~ inputmolrdkit = Chem.MolFromMolFile(inputmolfile)\n        #~ if inputmolrdkit == None:\n        #~ print inputmolrdkit\n        response.flash = T(\'Compound has been uploaded successfully.\')\n\n\n    content = form\n    #~ else:\n        #~ content = SQLFORM.grid(db.compound)\n\n    return dict(content=content)\n\n\n\ndef submit_compound_processing(form):\n        #check if extension file is .mol\n        if IS_UPLOAD_FILENAME(extension=\'mol\')(form.vars.molstructure)[1] == None:\n            #check if file is a mol file in correct format\n            if is_valid_ctab(form.vars.molstructure.value) == True: \n                pass\n            #~ inputmolrdkit = Chem.MolFromMolFile(form.vars.molstructure.file)\n            #~ inputmolfile = os.path.join(request.folder,\'static/temp/\') + form.vars.molstructure\n            else:\n                form.errors.molstructure = T(\'You must introduce a mol structure file with correct format.\')\n        elif form.vars.smiles:\n            if is_valid_smiles(form.vars.smiles)==True:\n                pass\n            else: \n                form.errors.smiles = T(\'SMILES has an error, please check\')\n        else:\n            form.errors.smiles = T(\'You must introduce an structure using an smiles or uploading a file\') \n            \n\n\'\'\'\nSubmition of a new compound. \nThis data is store in temporal tables\n\'\'\'\ndef submit_compound():\n    # (2) Build the form\n    form = SQLFORM.factory(\n        Field(\'molstructure\', type=\'upload\', uploadfolder=os.path.join(request.folder,\'static/temp\')), \n        db.compoundsubmission,\n        #~ Field(\'inputselector\',requires=IS_IN_SET([\'Smile\',\'Draw\',\'File\']),widget=SQLFORM.widgets.radio.widget),\n        Field(\'synonyms\', type=\'list:string\', requires=IS_NOT_EMPTY()),\n        Field(\'reference\', type=\'list:string\'),\n        Field(\'comment\', type=\'text\'),\n    )\n\n    # (3) Validate form data\n    if form.process(onvalidation=submit_compound_processing).accepted:\n\t\t\n\t\t# (4) Insert compound\n        compoundsubmission_id = db.compoundsubmission.insert(\n            **db.compoundsubmission._filter_fields(form.vars))\n        print \'compoundsub %i\'%(compoundsubmission_id)\n\t\t\t\t\n        # (7) Insert synonyms\n        if compoundsubmission_id and form.vars.tmpsynonyms:\n            synonymlist = form.vars.synonyms\n            for synonym in synonymlist:\n                db.tmpsynonym.insert(\n                    compoundsubmission_id=compoundsubmission_id,\n                    synonymname=str(synonym).strip(\'\\r\'))\n        \n        # (8) Insert structure\n        if compoundsubmission_id and form.vars.molstructure:\n            molfilename = os.path.join(request.folder,\'static/temp/\') + form.vars.molstructure\n            rdkitmol = Chem.MolFromMolFile(molfilename)\n            mol_data = file(molfilename,\'r\').read()\n            smiles_data = Chem.MolToSmiles(rdkitmol)\n        elif compoundsubmission_id and form.vars.smiles:\n            rdkitmol = Chem.MolFromSmiles(form.vars.smiles)\n            rdkitmol = Chem.AddHs(rdkitmol)\n            AllChem.EmbedMolecule(rdkitmol)\n            AllChem.UFFOptimizeMolecule(rdkitmol)\n            mol_data = Chem.MolToMolBlock(rdkitmol)\n            smiles_data = form.vars.smiles\n\t\t\n\t\t# (9) Insert reference\n\t\tprint form.vars.reference\n\t\tprint reference=input2doc(form.vars.reference)\n\t\trow = db.tmpdoc(doi=reference)\n\t\tif not row:\n\t\t\tdb.tmpdoc.insert(doi=doi,nearset=nearest)\n\t\t#~ elif not row.nearest: \n\t\t\t#~ row.update_record(nearset=nearest)\n\t\telse: pass # do nothing \n\t\t\n        \n        print compoundsubmission_id\n        print 10*"\\n"    \n        db.executesql("UPDATE compoundsubmission SET smiles =\'%s\'::cstring, molstructure =\'%s\'::cstring, rdkitstructure =mol_from_ctab(\'%s\'::cstring), addinfo=\'%s\'::cstring WHERE id=\'%i\';"%(smiles_data, mol_data, mol_data, form.vars.addinfo, compoundsubmission_id))\n          \n        #~ inputmolfile = os.path.join(request.folder,\'static/temp/\') + form.vars.molstructure\n        #~ inputmolrdkit = Chem.MolFromMolFile(inputmolfile)\n        response.flash = T(\'Compound has been uploaded successfully.\')\n    content = form\n    return dict(content=content)\n\n\n\ndef product():\n    if not request.args: redirect(URL(c=\'default\',f=\'index\'))\n    try:\n        int(request.args(0))\n    except ValueError:\n        raise HTTP(404, \'Product not found. Invalid ID.\')\n\n    product = db(db.compound.id == int(request.args(0))).select().first()\n    specification = db(db.specification.product == product.id).select().first()\n    reviews = db(db.review.product == product.id).select()\n\n    form = SQLFORM.factory(\n        Field(\'quantity\', \'integer\', default=1),\n        _class="form-inline"\n        )\n    if form.accepts(request.vars, session):\n        quantity = int(form.vars.quantity)\n        if quantity > product.quantity or quantity <= 0:\n            response.flash = T(\'Unavailable quantity.\')\n        else:\n            for prod in session.cart:\n                if prod[0] == product.id:\n                    prod[1] += quantity\n                    break\n                else:\n                    session.cart.append([product.id, quantity])\n                    break\n            else:\n                session.cart.append([product.id, quantity])\n            redirect(URL(c=\'default\',f=\'checkout\'))\n\n    return dict(product=product, specification=specification, reviews=reviews, form=form)\n\nresponse._vars=response._caller(submit_compound)\n'
p7
sS'snapshot'
p8
(dp9
S'exception'
p10
(dp11
S'__getslice__'
p12
S"<method-wrapper '__getslice__' of exceptions.IndentationError object>"
p13
sS'text'
p14
S"'\\t\\tprint form.vars.reference\\n'"
p15
sS'__str__'
p16
S"<method-wrapper '__str__' of exceptions.IndentationError object>"
p17
sS'__reduce__'
p18
S'<built-in method __reduce__ of exceptions.IndentationError object>'
p19
sS'__dict__'
p20
S'{}'
p21
sS'__sizeof__'
p22
S'<built-in method __sizeof__ of exceptions.IndentationError object>'
p23
sS'__init__'
p24
S"<method-wrapper '__init__' of exceptions.IndentationError object>"
p25
sS'__setattr__'
p26
S"<method-wrapper '__setattr__' of exceptions.IndentationError object>"
p27
sS'__reduce_ex__'
p28
S'<built-in method __reduce_ex__ of exceptions.IndentationError object>'
p29
sS'__new__'
p30
S'<built-in method __new__ of type object>'
p31
sS'__format__'
p32
S'<built-in method __format__ of exceptions.IndentationError object>'
p33
sS'__class__'
p34
S"<type 'exceptions.IndentationError'>"
p35
sS'filename'
p36
S"'/mnt/web2py/applications/naturardb/controllers/compuestos.py'"
p37
sS'lineno'
p38
S'516'
p39
sS'msg'
p40
S"'unexpected indent'"
p41
sS'__doc__'
p42
S"'Improper indentation.'"
p43
sS'__getitem__'
p44
S"<method-wrapper '__getitem__' of exceptions.IndentationError object>"
p45
sS'__setstate__'
p46
S'<built-in method __setstate__ of exceptions.IndentationError object>'
p47
sS'__getattribute__'
p48
S"<method-wrapper '__getattribute__' of exceptions.IndentationError object>"
p49
sS'print_file_and_line'
p50
S'None'
p51
sS'args'
p52
S"('unexpected indent', ('/mnt/web2py/applications/naturardb/controllers/compuestos.py', 516, 2, '\\t\\tprint form.vars.reference\\n'))"
p53
sS'__subclasshook__'
p54
S'<built-in method __subclasshook__ of type object>'
p55
sS'offset'
p56
S'2'
sS'__unicode__'
p57
S'<built-in method __unicode__ of exceptions.IndentationError object>'
p58
sS'__delattr__'
p59
S"<method-wrapper '__delattr__' of exceptions.IndentationError object>"
p60
sS'__repr__'
p61
S"<method-wrapper '__repr__' of exceptions.IndentationError object>"
p62
sS'__hash__'
p63
S"<method-wrapper '__hash__' of exceptions.IndentationError object>"
p64
ssS'evalue'
p65
S'unexpected indent (compuestos.py, line 516)'
p66
sS'request'
p67
cgluon.html
XML_unpickle
p68
(S's\xc9[\x00\x00<div><table><tr><td style="font-weight:bold;vertical-align:top;">ajax</td><td style="vertical-align:top;">:</td><td><div>False</div></td></tr><tr><td style="font-weight:bold;vertical-align:top;">application</td><td style="vertical-align:top;">:</td><td><div>naturardb</div></td></tr><tr><td style="font-weight:bold;vertical-align:top;">args</td><td style="vertical-align:top;">:</td><td><div><table></table></div></td></tr><tr><td style="font-weight:bold;vertical-align:top;">cid</td><td style="vertical-align:top;">:</td><td><div>None</div></td></tr><tr><td style="font-weight:bold;vertical-align:top;">client</td><td style="vertical-align:top;">:</td><td><div>163.10.79.132</div></td></tr><tr><td style="font-weight:bold;vertical-align:top;">controller</td><td style="vertical-align:top;">:</td><td><div>compuestos</div></td></tr><tr><td style="font-weight:bold;vertical-align:top;">cookies</td><td style="vertical-align:top;">:</td><td><div><table><tr><td style="font-weight:bold;vertical-align:top;">session_id_admin</td><td style="vertical-align:top;">:</td><td><div>163.10.79.132-54370049-bc76-4060-8328-02167eccb9e3<table><tr><td style="font-weight:bold;vertical-align:top;">comment</td><td style="vertical-align:top;">:</td><td><div></div></td></tr><tr><td style="font-weight:bold;vertical-align:top;">domain</td><td style="vertical-align:top;">:</td><td><div></div></td></tr><tr><td style="font-weight:bold;vertical-align:top;">expires</td><td style="vertical-align:top;">:</td><td><div></div></td></tr><tr><td style="font-weight:bold;vertical-align:top;">httponly</td><td style="vertical-align:top;">:</td><td><div></div></td></tr><tr><td style="font-weight:bold;vertical-align:top;">max-age</td><td style="vertical-align:top;">:</td><td><div></div></td></tr><tr><td style="font-weight:bold;vertical-align:top;">path</td><td style="vertical-align:top;">:</td><td><div></div></td></tr><tr><td style="font-weight:bold;vertical-align:top;">secure</td><td style="vertical-align:top;">:</td><td><div></div></td></tr><tr><td style="font-weight:bold;vertical-align:top;">version</td><td style="vertical-align:top;">:</td><td><div></div></td></tr></table></div></td></tr><tr><td style="font-weight:bold;vertical-align:top;">session_id_naturardb</td><td style="vertical-align:top;">:</td><td><div>163.10.79.132-2b08662d-8474-4ff8-a11d-f2f5aa1eb42f<table><tr><td style="font-weight:bold;vertical-align:top;">comment</td><td style="vertical-align:top;">:</td><td><div></div></td></tr><tr><td style="font-weight:bold;vertical-align:top;">domain</td><td style="vertical-align:top;">:</td><td><div></div></td></tr><tr><td style="font-weight:bold;vertical-align:top;">expires</td><td style="vertical-align:top;">:</td><td><div></div></td></tr><tr><td style="font-weight:bold;vertical-align:top;">httponly</td><td style="vertical-align:top;">:</td><td><div></div></td></tr><tr><td style="font-weight:bold;vertical-align:top;">max-age</td><td style="vertical-align:top;">:</td><td><div></div></td></tr><tr><td style="font-weight:bold;vertical-align:top;">path</td><td style="vertical-align:top;">:</td><td><div></div></td></tr><tr><td style="font-weight:bold;vertical-align:top;">secure</td><td style="vertical-align:top;">:</td><td><div></div></td></tr><tr><td style="font-weight:bold;vertical-align:top;">version</td><td style="vertical-align:top;">:</td><td><div></div></td></tr></table></div></td></tr><tr><td style="font-weight:bold;vertical-align:top;">session_id_welcome</td><td style="vertical-align:top;">:</td><td><div>163.10.79.132-8f6628d8-a1f2-4c95-be98-4ca5f187b66d<table><tr><td style="font-weight:bold;vertical-align:top;">comment</td><td style="vertical-align:top;">:</td><td><div></div></td></tr><tr><td style="font-weight:bold;vertical-align:top;">domain</td><td style="vertical-align:top;">:</td><td><div></div></td></tr><tr><td style="font-weight:bold;vertical-align:top;">expires</td><td style="vertical-align:top;">:</td><td><div></div></td></tr><tr><td style="font-weight:bold;vertical-align:top;">httponly</td><td style="vertical-align:top;">:</td><td><div></div></td></tr><tr><td style="font-weight:bold;vertical-align:top;">max-age</td><td style="vertical-align:top;">:</td><td><div></div></td></tr><tr><td style="font-weight:bold;vertical-align:top;">path</td><td style="vertical-align:top;">:</td><td><div></div></td></tr><tr><td style="font-weight:bold;vertical-align:top;">secure</td><td style="vertical-align:top;">:</td><td><div></div></td></tr><tr><td style="font-weight:bold;vertical-align:top;">version</td><td style="vertical-align:top;">:</td><td><div></div></td></tr></table></div></td></tr></table></div></td></tr><tr><td style="font-weight:bold;vertical-align:top;">env</td><td style="vertical-align:top;">:</td><td><div><table><tr><td style="font-weight:bold;vertical-align:top;">HTTP_ACCEPT</td><td style="vertical-align:top;">:</td><td><div>text/html,application/xhtml+xml,application/xml;q=0.9,*/*;q=0.8</div></td></tr><tr><td style="font-weight:bold;vertical-align:top;">HTTP_ACCEPT_ENCODING</td><td style="vertical-align:top;">:</td><td><div>gzip, deflate</div></td></tr><tr><td style="font-weight:bold;vertical-align:top;">HTTP_ACCEPT_LANGUAGE</td><td style="vertical-align:top;">:</td><td><div>en-US,en;q=0.5</div></td></tr><tr><td style="font-weight:bold;vertical-align:top;">HTTP_CACHE_CONTROL</td><td style="vertical-align:top;">:</td><td><div>max-age=0</div></td></tr><tr><td style="font-weight:bold;vertical-align:top;">HTTP_CONNECTION</td><td style="vertical-align:top;">:</td><td><div>keep-alive</div></td></tr><tr><td style="font-weight:bold;vertical-align:top;">HTTP_COOKIE</td><td style="vertical-align:top;">:</td><td><div>session_id_welcome=163.10.79.132-8f6628d8-a1f2-4c95-be98-4ca5f187b66d; session_id_admin=163.10.79.132-54370049-bc76-4060-8328-02167eccb9e3; session_id_naturardb=163.10.79.132-2b08662d-8474-4ff8-a11d-f2f5aa1eb42f</div></td></tr><tr><td style="font-weight:bold;vertical-align:top;">HTTP_HOST</td><td style="vertical-align:top;">:</td><td><div>163.10.79.195</div></td></tr><tr><td style="font-weight:bold;vertical-align:top;">HTTP_REFERER</td><td style="vertical-align:top;">:</td><td><div>http://163.10.79.195/naturardb/compuestos/submit_compound</div></td></tr><tr><td style="font-weight:bold;vertical-align:top;">HTTP_UPGRADE_INSECURE_REQUESTS</td><td style="vertical-align:top;">:</td><td><div>1</div></td></tr><tr><td style="font-weight:bold;vertical-align:top;">HTTP_USER_AGENT</td><td style="vertical-align:top;">:</td><td><div>Mozilla/5.0 (X11; Ubuntu; Linux x86_64; rv:49.0) Gecko/20100101 Firefox/49.0</div></td></tr><tr><td style="font-weight:bold;vertical-align:top;">PATH_INFO</td><td style="vertical-align:top;">:</td><td><div>/naturardb/compuestos/submit_compound</div></td></tr><tr><td style="font-weight:bold;vertical-align:top;">QUERY_STRING</td><td style="vertical-align:top;">:</td><td><div></div></td></tr><tr><td style="font-weight:bold;vertical-align:top;">REMOTE_ADDR</td><td style="vertical-align:top;">:</td><td><div>163.10.79.132</div></td></tr><tr><td style="font-weight:bold;vertical-align:top;">REMOTE_PORT</td><td style="vertical-align:top;">:</td><td><div>53413</div></td></tr><tr><td style="font-weight:bold;vertical-align:top;">REQUEST_METHOD</td><td style="vertical-align:top;">:</td><td><div>GET</div></td></tr><tr><td style="font-weight:bold;vertical-align:top;">SCRIPT_NAME</td><td style="vertical-align:top;">:</td><td><div></div></td></tr><tr><td style="font-weight:bold;vertical-align:top;">SERVER_NAME</td><td style="vertical-align:top;">:</td><td><div>ubuntu</div></td></tr><tr><td style="font-weight:bold;vertical-align:top;">SERVER_PORT</td><td style="vertical-align:top;">:</td><td><div>80</div></td></tr><tr><td style="font-weight:bold;vertical-align:top;">SERVER_PROTOCOL</td><td style="vertical-align:top;">:</td><td><div>HTTP/1.1</div></td></tr><tr><td style="font-weight:bold;vertical-align:top;">SERVER_SOFTWARE</td><td style="vertical-align:top;">:</td><td><div>Rocket 1.2.6</div></td></tr><tr><td style="font-weight:bold;vertical-align:top;">app_folders</td><td style="vertical-align:top;">:</td><td><div>set([&#x27;/mnt/web2py/applications/naturardb/&#x27;, &#x27;/mnt/web2py/applications/welcome/&#x27;])</div></td></tr><tr><td style="font-weight:bold;vertical-align:top;">applications_parent</td><td style="vertical-align:top;">:</td><td><div>/mnt/web2py</div></td></tr><tr><td style="font-weight:bold;vertical-align:top;">cmd_args</td><td style="vertical-align:top;">:</td><td><div><table></table></div></td></tr><tr><td style="font-weight:bold;vertical-align:top;">cmd_options</td><td style="vertical-align:top;">:</td><td><div>&lt;Values at 0x7ff1ce10e7e8: {&#x27;verbose&#x27;: False, &#x27;ip&#x27;: &#x27;0.0.0.0&#x27;, &#x27;debuglevel&#x27;: 30, &#x27;with_scheduler&#x27;: False, &#x27;shutdown_timeout&#x27;: 5, &#x27;taskbar&#x27;: False, &#x27;with_coverage&#x27;: False, &#x27;pid_filename&#x27;: &#x27;httpserver.pid&#x27;, &#x27;maxthreads&#x27;: None, &#x27;softcron&#x27;: False, &#x27;server_name&#x27;: &#x27;ubuntu&#x27;, &#x27;bpython&#x27;: False, &#x27;nogui&#x27;: True, &#x27;port&#x27;: 80, &#x27;print_errors&#x27;: True, &#x27;extcron&#x27;: False, &#x27;runcron&#x27;: False, &#x27;run_system_tests&#x27;: False, &#x27;test&#x27;: None, &#x27;folder&#x27;: &#x27;/mnt/web2py&#x27;, &#x27;config&#x27;: &#x27;&#x27;, &#x27;minthreads&#x27;: None, &#x27;shell&#x27;: None, &#x27;run&#x27;: &#x27;&#x27;, &#x27;log_filename&#x27;: &#x27;httpserver.log&#x27;, &#x27;profiler_dir&#x27;: None, &#x27;args&#x27;: [&#x27;&#x27;], &#x27;socket_timeout&#x27;: 5, &#x27;ssl_ca_certificate&#x27;: None, &#x27;scheduler&#x27;: None, &#x27;interfaces&#x27;: None, &#x27;ssl_private_key&#x27;: &#x27;&#x27;, &#x27;gae&#x27;: None, &#x27;password&#x27;: &#x27;******&#x27;, &#x27;request_queue_size&#x27;: 5, &#x27;ssl_certificate&#x27;: &#x27;&#x27;, &#x27;cronjob&#x27;: False, &#x27;numthreads&#x27;: None, &#x27;quiet&#x27;: False, &#x27;import_models&#x27;: False, &#x27;timeout&#x27;: 10, &#x27;plain&#x27;: False, &#x27;nobanner&#x27;: False}&gt;</div></td></tr><tr><td style="font-weight:bold;vertical-align:top;">db_sessions</td><td style="vertical-align:top;">:</td><td><div>set([])</div></td></tr><tr><td style="font-weight:bold;vertical-align:top;">debugging</td><td style="vertical-align:top;">:</td><td><div>False</div></td></tr><tr><td style="font-weight:bold;vertical-align:top;">gluon_parent</td><td style="vertical-align:top;">:</td><td><div>/mnt/web2py</div></td></tr><tr><td style="font-weight:bold;vertical-align:top;">http_accept</td><td style="vertical-align:top;">:</td><td><div>text/html,application/xhtml+xml,application/xml;q=0.9,*/*;q=0.8</div></td></tr><tr><td style="font-weight:bold;vertical-align:top;">http_accept_encoding</td><td style="vertical-align:top;">:</td><td><div>gzip, deflate</div></td></tr><tr><td style="font-weight:bold;vertical-align:top;">http_accept_language</td><td style="vertical-align:top;">:</td><td><div>en-US,en;q=0.5</div></td></tr><tr><td style="font-weight:bold;vertical-align:top;">http_cache_control</td><td style="vertical-align:top;">:</td><td><div>max-age=0</div></td></tr><tr><td style="font-weight:bold;vertical-align:top;">http_connection</td><td style="vertical-align:top;">:</td><td><div>keep-alive</div></td></tr><tr><td style="font-weight:bold;vertical-align:top;">http_cookie</td><td style="vertical-align:top;">:</td><td><div>session_id_welcome=163.10.79.132-8f6628d8-a1f2-4c95-be98-4ca5f187b66d; session_id_admin=163.10.79.132-54370049-bc76-4060-8328-02167eccb9e3; session_id_naturardb=163.10.79.132-2b08662d-8474-4ff8-a11d-f2f5aa1eb42f</div></td></tr><tr><td style="font-weight:bold;vertical-align:top;">http_host</td><td style="vertical-align:top;">:</td><td><div>163.10.79.195</div></td></tr><tr><td style="font-weight:bold;vertical-align:top;">http_referer</td><td style="vertical-align:top;">:</td><td><div>http://163.10.79.195/naturardb/compuestos/submit_compound</div></td></tr><tr><td style="font-weight:bold;vertical-align:top;">http_upgrade_insecure_requests</td><td style="vertical-align:top;">:</td><td><div>1</div></td></tr><tr><td style="font-weight:bold;vertical-align:top;">http_user_agent</td><td style="vertical-align:top;">:</td><td><div>Mozilla/5.0 (X11; Ubuntu; Linux x86_64; rv:49.0) Gecko/20100101 Firefox/49.0</div></td></tr><tr><td style="font-weight:bold;vertical-align:top;">is_jython</td><td style="vertical-align:top;">:</td><td><div>False</div></td></tr><tr><td style="font-weight:bold;vertical-align:top;">is_pypy</td><td style="vertical-align:top;">:</td><td><div>False</div></td></tr><tr><td style="font-weight:bold;vertical-align:top;">is_source</td><td style="vertical-align:top;">:</td><td><div>True</div></td></tr><tr><td style="font-weight:bold;vertical-align:top;">local_hosts</td><td style="vertical-align:top;">:</td><td><div><table><tr><td><div>::ffff:127.0.0.1</div></td></tr><tr><td><div>::1</div></td></tr><tr><td><div>127.0.0.1</div></td></tr><tr><td><div>ubuntu</div></td></tr><tr><td><div>127.0.1.1</div></td></tr><tr><td><div>localhost</div></td></tr></table></div></td></tr><tr><td style="font-weight:bold;vertical-align:top;">path_info</td><td style="vertical-align:top;">:</td><td><div>/naturardb/compuestos/submit_compound</div></td></tr><tr><td style="font-weight:bold;vertical-align:top;">query_string</td><td style="vertical-align:top;">:</td><td><div></div></td></tr><tr><td style="font-weight:bold;vertical-align:top;">remote_addr</td><td style="vertical-align:top;">:</td><td><div>163.10.79.132</div></td></tr><tr><td style="font-weight:bold;vertical-align:top;">remote_port</td><td style="vertical-align:top;">:</td><td><div>53413</div></td></tr><tr><td style="font-weight:bold;vertical-align:top;">request_method</td><td style="vertical-align:top;">:</td><td><div>GET</div></td></tr><tr><td style="font-weight:bold;vertical-align:top;">request_uri</td><td style="vertical-align:top;">:</td><td><div>/naturardb/compuestos/submit_compound</div></td></tr><tr><td style="font-weight:bold;vertical-align:top;">script_name</td><td style="vertical-align:top;">:</td><td><div></div></td></tr><tr><td style="font-weight:bold;vertical-align:top;">server_name</td><td style="vertical-align:top;">:</td><td><div>ubuntu</div></td></tr><tr><td style="font-weight:bold;vertical-align:top;">server_port</td><td style="vertical-align:top;">:</td><td><div>80</div></td></tr><tr><td style="font-weight:bold;vertical-align:top;">server_protocol</td><td style="vertical-align:top;">:</td><td><div>HTTP/1.1</div></td></tr><tr><td style="font-weight:bold;vertical-align:top;">server_software</td><td style="vertical-align:top;">:</td><td><div>Rocket 1.2.6</div></td></tr><tr><td style="font-weight:bold;vertical-align:top;">web2py_path</td><td style="vertical-align:top;">:</td><td><div>/mnt/web2py</div></td></tr><tr><td style="font-weight:bold;vertical-align:top;">web2py_version</td><td style="vertical-align:top;">:</td><td><div>2.14.3-stable+timestamp.2016.03.26.23.02.02</div></td></tr><tr><td style="font-weight:bold;vertical-align:top;">wsgi.errors</td><td style="vertical-align:top;">:</td><td><div>&lt;open file &#x27;&lt;stderr&gt;&#x27;, mode &#x27;w&#x27; at 0x7ff1d20161e0&gt;</div></td></tr><tr><td style="font-weight:bold;vertical-align:top;">wsgi.file_wrapper</td><td style="vertical-align:top;">:</td><td><div>&lt;class wsgiref.util.FileWrapper at 0x7ff1ce1447a0&gt;</div></td></tr><tr><td style="font-weight:bold;vertical-align:top;">wsgi.input</td><td style="vertical-align:top;">:</td><td><div>&lt;socket._fileobject object at 0x7ff19a904250&gt;</div></td></tr><tr><td style="font-weight:bold;vertical-align:top;">wsgi.multiprocess</td><td style="vertical-align:top;">:</td><td><div>False</div></td></tr><tr><td style="font-weight:bold;vertical-align:top;">wsgi.multithread</td><td style="vertical-align:top;">:</td><td><div>True</div></td></tr><tr><td style="font-weight:bold;vertical-align:top;">wsgi.run_once</td><td style="vertical-align:top;">:</td><td><div>False</div></td></tr><tr><td style="font-weight:bold;vertical-align:top;">wsgi.url_scheme</td><td style="vertical-align:top;">:</td><td><div>http</div></td></tr><tr><td style="font-weight:bold;vertical-align:top;">wsgi.version</td><td style="vertical-align:top;">:</td><td><div><table><tr><td><div>1</div></td></tr><tr><td><div>0</div></td></tr></table></div></td></tr><tr><td style="font-weight:bold;vertical-align:top;">wsgi_errors</td><td style="vertical-align:top;">:</td><td><div>&lt;open file &#x27;&lt;stderr&gt;&#x27;, mode &#x27;w&#x27; at 0x7ff1d20161e0&gt;</div></td></tr><tr><td style="font-weight:bold;vertical-align:top;">wsgi_file_wrapper</td><td style="vertical-align:top;">:</td><td><div>&lt;class wsgiref.util.FileWrapper at 0x7ff1ce1447a0&gt;</div></td></tr><tr><td style="font-weight:bold;vertical-align:top;">wsgi_input</td><td style="vertical-align:top;">:</td><td><div>&lt;socket._fileobject object at 0x7ff19a904250&gt;</div></td></tr><tr><td style="font-weight:bold;vertical-align:top;">wsgi_multiprocess</td><td style="vertical-align:top;">:</td><td><div>False</div></td></tr><tr><td style="font-weight:bold;vertical-align:top;">wsgi_multithread</td><td style="vertical-align:top;">:</td><td><div>True</div></td></tr><tr><td style="font-weight:bold;vertical-align:top;">wsgi_run_once</td><td style="vertical-align:top;">:</td><td><div>False</div></td></tr><tr><td style="font-weight:bold;vertical-align:top;">wsgi_url_scheme</td><td style="vertical-align:top;">:</td><td><div>http</div></td></tr><tr><td style="font-weight:bold;vertical-align:top;">wsgi_version</td><td style="vertical-align:top;">:</td><td><div><table><tr><td><div>1</div></td></tr><tr><td><div>0</div></td></tr></table></div></td></tr></table></div></td></tr><tr><td style="font-weight:bold;vertical-align:top;">extension</td><td style="vertical-align:top;">:</td><td><div>html</div></td></tr><tr><td style="font-weight:bold;vertical-align:top;">folder</td><td style="vertical-align:top;">:</td><td><div>/mnt/web2py/applications/naturardb/</div></td></tr><tr><td style="font-weight:bold;vertical-align:top;">function</td><td style="vertical-align:top;">:</td><td><div>submit_compound</div></td></tr><tr><td style="font-weight:bold;vertical-align:top;">global_settings</td><td style="vertical-align:top;">:</td><td><div><table><tr><td style="font-weight:bold;vertical-align:top;">app_folders</td><td style="vertical-align:top;">:</td><td><div>set([&#x27;/mnt/web2py/applications/naturardb/&#x27;, &#x27;/mnt/web2py/applications/welcome/&#x27;])</div></td></tr><tr><td style="font-weight:bold;vertical-align:top;">applications_parent</td><td style="vertical-align:top;">:</td><td><div>/mnt/web2py</div></td></tr><tr><td style="font-weight:bold;vertical-align:top;">cmd_args</td><td style="vertical-align:top;">:</td><td><div><table></table></div></td></tr><tr><td style="font-weight:bold;vertical-align:top;">cmd_options</td><td style="vertical-align:top;">:</td><td><div>&lt;Values at 0x7ff1ce10e7e8: {&#x27;verbose&#x27;: False, &#x27;ip&#x27;: &#x27;0.0.0.0&#x27;, &#x27;debuglevel&#x27;: 30, &#x27;with_scheduler&#x27;: False, &#x27;shutdown_timeout&#x27;: 5, &#x27;taskbar&#x27;: False, &#x27;with_coverage&#x27;: False, &#x27;pid_filename&#x27;: &#x27;httpserver.pid&#x27;, &#x27;maxthreads&#x27;: None, &#x27;softcron&#x27;: False, &#x27;server_name&#x27;: &#x27;ubuntu&#x27;, &#x27;bpython&#x27;: False, &#x27;nogui&#x27;: True, &#x27;port&#x27;: 80, &#x27;print_errors&#x27;: True, &#x27;extcron&#x27;: False, &#x27;runcron&#x27;: False, &#x27;run_system_tests&#x27;: False, &#x27;test&#x27;: None, &#x27;folder&#x27;: &#x27;/mnt/web2py&#x27;, &#x27;config&#x27;: &#x27;&#x27;, &#x27;minthreads&#x27;: None, &#x27;shell&#x27;: None, &#x27;run&#x27;: &#x27;&#x27;, &#x27;log_filename&#x27;: &#x27;httpserver.log&#x27;, &#x27;profiler_dir&#x27;: None, &#x27;args&#x27;: [&#x27;&#x27;], &#x27;socket_timeout&#x27;: 5, &#x27;ssl_ca_certificate&#x27;: None, &#x27;scheduler&#x27;: None, &#x27;interfaces&#x27;: None, &#x27;ssl_private_key&#x27;: &#x27;&#x27;, &#x27;gae&#x27;: None, &#x27;password&#x27;: &#x27;******&#x27;, &#x27;request_queue_size&#x27;: 5, &#x27;ssl_certificate&#x27;: &#x27;&#x27;, &#x27;cronjob&#x27;: False, &#x27;numthreads&#x27;: None, &#x27;quiet&#x27;: False, &#x27;import_models&#x27;: False, &#x27;timeout&#x27;: 10, &#x27;plain&#x27;: False, &#x27;nobanner&#x27;: False}&gt;</div></td></tr><tr><td style="font-weight:bold;vertical-align:top;">db_sessions</td><td style="vertical-align:top;">:</td><td><div>set([])</div></td></tr><tr><td style="font-weight:bold;vertical-align:top;">debugging</td><td style="vertical-align:top;">:</td><td><div>False</div></td></tr><tr><td style="font-weight:bold;vertical-align:top;">gluon_parent</td><td style="vertical-align:top;">:</td><td><div>/mnt/web2py</div></td></tr><tr><td style="font-weight:bold;vertical-align:top;">is_jython</td><td style="vertical-align:top;">:</td><td><div>False</div></td></tr><tr><td style="font-weight:bold;vertical-align:top;">is_pypy</td><td style="vertical-align:top;">:</td><td><div>False</div></td></tr><tr><td style="font-weight:bold;vertical-align:top;">is_source</td><td style="vertical-align:top;">:</td><td><div>True</div></td></tr><tr><td style="font-weight:bold;vertical-align:top;">local_hosts</td><td style="vertical-align:top;">:</td><td><div><table><tr><td><div>::ffff:127.0.0.1</div></td></tr><tr><td><div>::1</div></td></tr><tr><td><div>127.0.0.1</div></td></tr><tr><td><div>ubuntu</div></td></tr><tr><td><div>127.0.1.1</div></td></tr><tr><td><div>localhost</div></td></tr></table></div></td></tr><tr><td style="font-weight:bold;vertical-align:top;">web2py_version</td><td style="vertical-align:top;">:</td><td><div>2.14.3-stable+timestamp.2016.03.26.23.02.02</div></td></tr></table></div></td></tr><tr><td style="font-weight:bold;vertical-align:top;">is_https</td><td style="vertical-align:top;">:</td><td><div>False</div></td></tr><tr><td style="font-weight:bold;vertical-align:top;">is_local</td><td style="vertical-align:top;">:</td><td><div>False</div></td></tr><tr><td style="font-weight:bold;vertical-align:top;">is_restful</td><td style="vertical-align:top;">:</td><td><div>False</div></td></tr><tr><td style="font-weight:bold;vertical-align:top;">is_scheduler</td><td style="vertical-align:top;">:</td><td><div>False</div></td></tr><tr><td style="font-weight:bold;vertical-align:top;">is_shell</td><td style="vertical-align:top;">:</td><td><div>False</div></td></tr><tr><td style="font-weight:bold;vertical-align:top;">now</td><td style="vertical-align:top;">:</td><td><div>datetime.datetime(2016, 10, 26, 20, 3, 53, 88889)</div></td></tr><tr><td style="font-weight:bold;vertical-align:top;">raw_args</td><td style="vertical-align:top;">:</td><td><div></div></td></tr><tr><td style="font-weight:bold;vertical-align:top;">raw_extension</td><td style="vertical-align:top;">:</td><td><div>None</div></td></tr><tr><td style="font-weight:bold;vertical-align:top;">url</td><td style="vertical-align:top;">:</td><td><div>/naturardb/compuestos/submit_compound</div></td></tr><tr><td style="font-weight:bold;vertical-align:top;">utcnow</td><td style="vertical-align:top;">:</td><td><div>datetime.datetime(2016, 10, 26, 20, 3, 53, 88908)</div></td></tr><tr><td style="font-weight:bold;vertical-align:top;">wsgi</td><td style="vertical-align:top;">:</td><td><div>&lt;gluon.main.LazyWSGI object at 0x7ff19a9d7210&gt;</div></td></tr></table></div>'
tRp69
sS'frames'
p70
(lp71
(dp72
S'file'
p73
S'/mnt/web2py/gluon/restricted.py'
p74
sS'dump'
p75
(dp76
S'code'
p77
S"'# -*- coding: utf-8 -*-\\n# this file is released ...response._vars=response._caller(submit_compound)\\n'"
p78
sS'layer'
p79
S"'/mnt/web2py/applications/naturardb/controllers/compuestos.py'"
p80
sS'global compile2'
p81
S'<function compile2>'
p82
sS'ccode'
p83
S'undefined'
p84
ssS'lnum'
p85
I226
sS'lines'
p86
(dp87
I224
S'            ccode = code'
p88
sI225
S'        else:'
p89
sI226
S'            ccode = compile2(code, layer)'
p90
sI227
S'        exec ccode in environment'
p91
sI228
S'    except HTTP:'
p92
sI229
S'        raise'
p93
sI230
S'    except RestrictedError:'
p94
sI221
S"    environment['__name__'] = '__restricted__'"
p95
sI222
S'    try:'
p96
sI223
S'        if isinstance(code, types.CodeType):'
p97
ssS'call'
p98
S"(code='# -*- coding: utf-8 -*-\\n# this file is released ...response._vars=response._caller(submit_compound)\\n', environment={'A': <class 'gluon.html.A'>, 'ANY_OF': <class 'gluon.validators.ANY_OF'>, 'ASSIGNJS': <function ASSIGNJS>, 'AppConfig': <function AppConfig>, 'Auth': <class 'gluon.tools.Auth'>, 'B': <class 'gluon.html.B'>, 'BEAUTIFY': <class 'gluon.html.BEAUTIFY'>, 'BODY': <class 'gluon.html.BODY'>, 'BR': <class 'gluon.html.BR'>, 'BUTTON': <class 'gluon.html.BUTTON'>, ...}, layer='/mnt/web2py/applications/naturardb/controllers/compuestos.py')"
p99
sS'func'
p100
S'restricted'
p101
sa(dp102
g73
S'/mnt/web2py/gluon/restricted.py'
p103
sg75
(dp104
S'builtincompile'
p105
S'<built-in function compile>'
p106
sS'code'
p107
S"'# -*- coding: utf-8 -*-\\n# this file is released ...response._vars=response._caller(submit_compound)\\n'"
p108
sS'code.rstrip'
p109
S'<built-in method rstrip of str object>'
p110
sS').replace'
p111
g84
sS'layer'
p112
S"'/mnt/web2py/applications/naturardb/controllers/compuestos.py'"
p113
ssg85
I209
sg86
(dp114
I204
S'def compile2(code, layer):'
p115
sI205
S'    """'
p116
sI206
S"    The ``+'\\\\n'`` is necessary else compile fails when code ends in a comment."
p117
sI207
S'    """'
p118
sI208
S''
sI209
S"    return compile(code.rstrip().replace('\\r\\n', '\\n') + '\\n', layer, 'exec')"
p119
sI210
S''
sI211
S''
sI212
S"def restricted(code, environment=None, layer='Unknown'):"
p120
sI213
S'    """'
p121
ssg98
S"(code='# -*- coding: utf-8 -*-\\n# this file is released ...response._vars=response._caller(submit_compound)\\n', layer='/mnt/web2py/applications/naturardb/controllers/compuestos.py')"
p122
sg100
S'compile2'
p123
sasS'pyver'
p124
S'Python 2.7.6: /usr/bin/python (prefix: /usr)'
p125
sS'session'
p126
g68
(S's\x9c\x00\x00\x00<div><table><tr><td style="font-weight:bold;vertical-align:top;">flash</td><td style="vertical-align:top;">:</td><td><div>None</div></td></tr></table></div>'
tRp127
sS'etype'
p128
S"<type 'exceptions.IndentationError'>"
p129
sS'date'
p130
S'Wed Oct 26 20:03:53 2016'
p131
sS'response'
p132
g68
(S's\xad\x1f\x00\x00<div><table><tr><td style="font-weight:bold;vertical-align:top;">body</td><td style="vertical-align:top;">:</td><td><div>&lt;cStringIO.StringO object at 0x7ff19a45c298&gt;</div></td></tr><tr><td style="font-weight:bold;vertical-align:top;">cookies</td><td style="vertical-align:top;">:</td><td><div><table><tr><td style="font-weight:bold;vertical-align:top;">session_id_naturardb</td><td style="vertical-align:top;">:</td><td><div>163.10.79.132-2b08662d-8474-4ff8-a11d-f2f5aa1eb42f<table><tr><td style="font-weight:bold;vertical-align:top;">comment</td><td style="vertical-align:top;">:</td><td><div></div></td></tr><tr><td style="font-weight:bold;vertical-align:top;">domain</td><td style="vertical-align:top;">:</td><td><div></div></td></tr><tr><td style="font-weight:bold;vertical-align:top;">expires</td><td style="vertical-align:top;">:</td><td><div></div></td></tr><tr><td style="font-weight:bold;vertical-align:top;">httponly</td><td style="vertical-align:top;">:</td><td><div></div></td></tr><tr><td style="font-weight:bold;vertical-align:top;">max-age</td><td style="vertical-align:top;">:</td><td><div></div></td></tr><tr><td style="font-weight:bold;vertical-align:top;">path</td><td style="vertical-align:top;">:</td><td><div>/</div></td></tr><tr><td style="font-weight:bold;vertical-align:top;">secure</td><td style="vertical-align:top;">:</td><td><div></div></td></tr><tr><td style="font-weight:bold;vertical-align:top;">version</td><td style="vertical-align:top;">:</td><td><div></div></td></tr></table></div></td></tr></table></div></td></tr><tr><td style="font-weight:bold;vertical-align:top;">delimiters</td><td style="vertical-align:top;">:</td><td><div><table><tr><td><div>{{</div></td></tr><tr><td><div>}}</div></td></tr></table></div></td></tr><tr><td style="font-weight:bold;vertical-align:top;">files</td><td style="vertical-align:top;">:</td><td><div><table></table></div></td></tr><tr><td style="font-weight:bold;vertical-align:top;">flash</td><td style="vertical-align:top;">:</td><td><div></div></td></tr><tr><td style="font-weight:bold;vertical-align:top;">form_label_separator</td><td style="vertical-align:top;">:</td><td><div></div></td></tr><tr><td style="font-weight:bold;vertical-align:top;">formstyle</td><td style="vertical-align:top;">:</td><td><div>bootstrap3_inline</div></td></tr><tr><td style="font-weight:bold;vertical-align:top;">generic_patterns</td><td style="vertical-align:top;">:</td><td><div><table></table></div></td></tr><tr><td style="font-weight:bold;vertical-align:top;">google_analytics_id</td><td style="vertical-align:top;">:</td><td><div>None</div></td></tr><tr><td style="font-weight:bold;vertical-align:top;">headers</td><td style="vertical-align:top;">:</td><td><div><table><tr><td style="font-weight:bold;vertical-align:top;">X-Powered-By</td><td style="vertical-align:top;">:</td><td><div>web2py</div></td></tr></table></div></td></tr><tr><td style="font-weight:bold;vertical-align:top;">logo</td><td style="vertical-align:top;">:</td><td><div><a class="navbar-brand" href="http://www.natur.ar/" id="web2py-logo"><b>web<span>2</span>py</b>&trade;&nbsp;</a></div></td></tr><tr><td style="font-weight:bold;vertical-align:top;">menu</td><td style="vertical-align:top;">:</td><td><div><table><tr><td><div><table><tr><td><div>Home</div></td></tr><tr><td><div>False</div></td></tr><tr><td><div>/naturardb/default/index</div></td></tr><tr><td><div><table></table></div></td></tr></table></div></td></tr><tr><td><div><table><tr><td><div>Research Groups</div></td></tr><tr><td><div>False</div></td></tr><tr><td><div>/naturardb/groups/list</div></td></tr><tr><td><div><table></table></div></td></tr></table></div></td></tr><tr><td><div><table><tr><td><div>Compounds</div></td></tr><tr><td><div>False</div></td></tr><tr><td><div>/naturardb/data/compounds</div></td></tr><tr><td><div><table></table></div></td></tr></table></div></td></tr><tr><td><div><table><tr><td><div>Extracts</div></td></tr><tr><td><div>False</div></td></tr><tr><td><div>/naturardb/data/extracts</div></td></tr><tr><td><div><table></table></div></td></tr></table></div></td></tr></table></div></td></tr><tr><td style="font-weight:bold;vertical-align:top;">meta</td><td style="vertical-align:top;">:</td><td><div><table><tr><td style="font-weight:bold;vertical-align:top;">author</td><td style="vertical-align:top;">:</td><td><div>Your Name &lt;you@example.com&gt;</div></td></tr><tr><td style="font-weight:bold;vertical-align:top;">description</td><td style="vertical-align:top;">:</td><td><div>a cool new app</div></td></tr><tr><td style="font-weight:bold;vertical-align:top;">generator</td><td style="vertical-align:top;">:</td><td><div>Web2py Web Framework</div></td></tr><tr><td style="font-weight:bold;vertical-align:top;">keywords</td><td style="vertical-align:top;">:</td><td><div>web2py, python, framework</div></td></tr></table></div></td></tr><tr><td style="font-weight:bold;vertical-align:top;">models_to_run</td><td style="vertical-align:top;">:</td><td><div><table><tr><td><div>^\\w+\\.py$</div></td></tr><tr><td><div>^compuestos/\\w+\\.py$</div></td></tr><tr><td><div>^compuestos/submit_compound/\\w+\\.py$</div></td></tr></table></div></td></tr><tr><td style="font-weight:bold;vertical-align:top;">postprocessing</td><td style="vertical-align:top;">:</td><td><div><table></table></div></td></tr><tr><td style="font-weight:bold;vertical-align:top;">session_client</td><td style="vertical-align:top;">:</td><td><div>163.10.79.132</div></td></tr><tr><td style="font-weight:bold;vertical-align:top;">session_cookie_compression_level</td><td style="vertical-align:top;">:</td><td><div>None</div></td></tr><tr><td style="font-weight:bold;vertical-align:top;">session_cookie_expires</td><td style="vertical-align:top;">:</td><td><div>None</div></td></tr><tr><td style="font-weight:bold;vertical-align:top;">session_data_name</td><td style="vertical-align:top;">:</td><td><div>session_data_naturardb</div></td></tr><tr><td style="font-weight:bold;vertical-align:top;">session_file</td><td style="vertical-align:top;">:</td><td><div>&lt;open file &#x27;/mnt/web2py/applications/naturardb/sessions/145/0f1/163.10.79.132-2b08662d-8474-4ff8-a11d-f2f5aa1eb42f&#x27;, mode &#x27;rb+&#x27; at 0x7ff19b1a2db0&gt;</div></td></tr><tr><td style="font-weight:bold;vertical-align:top;">session_filename</td><td style="vertical-align:top;">:</td><td><div>/mnt/web2py/applications/naturardb/sessions/163.10.79.132-2b08662d-8474-4ff8-a11d-f2f5aa1eb42f</div></td></tr><tr><td style="font-weight:bold;vertical-align:top;">session_hash</td><td style="vertical-align:top;">:</td><td><div>d9709153347f3c58f134a03196bcb538</div></td></tr><tr><td style="font-weight:bold;vertical-align:top;">session_id</td><td style="vertical-align:top;">:</td><td><div>163.10.79.132-2b08662d-8474-4ff8-a11d-f2f5aa1eb42f</div></td></tr><tr><td style="font-weight:bold;vertical-align:top;">session_id_name</td><td style="vertical-align:top;">:</td><td><div>session_id_naturardb</div></td></tr><tr><td style="font-weight:bold;vertical-align:top;">session_locked</td><td style="vertical-align:top;">:</td><td><div>True</div></td></tr><tr><td style="font-weight:bold;vertical-align:top;">session_masterapp</td><td style="vertical-align:top;">:</td><td><div>naturardb</div></td></tr><tr><td style="font-weight:bold;vertical-align:top;">session_new</td><td style="vertical-align:top;">:</td><td><div>False</div></td></tr><tr><td style="font-weight:bold;vertical-align:top;">session_storage_type</td><td style="vertical-align:top;">:</td><td><div>file</div></td></tr><tr><td style="font-weight:bold;vertical-align:top;">status</td><td style="vertical-align:top;">:</td><td><div>200</div></td></tr><tr><td style="font-weight:bold;vertical-align:top;">subtitle</td><td style="vertical-align:top;">:</td><td><div></div></td></tr><tr><td style="font-weight:bold;vertical-align:top;">title</td><td style="vertical-align:top;">:</td><td><div>Naturardb</div></td></tr><tr><td style="font-weight:bold;vertical-align:top;">view</td><td style="vertical-align:top;">:</td><td><div>compuestos/submit_compound.html</div></td></tr></table></div>'
tRp133
sS'locals'
p134
(dp135
g4
S"'/mnt/web2py/applications/naturardb/controllers/compuestos.py'"
p136
sg6
S"'# -*- coding: utf-8 -*-\\n# this file is released ...response._vars=response._caller(submit_compound)\\n'"
p137
sssS'traceback'
p138
S'Traceback (most recent call last):\n  File "/mnt/web2py/gluon/restricted.py", line 226, in restricted\n    ccode = compile2(code, layer)\n  File "/mnt/web2py/gluon/restricted.py", line 209, in compile2\n    return compile(code.rstrip().replace(\'\\r\\n\', \'\\n\') + \'\\n\', layer, \'exec\')\n  File "/mnt/web2py/applications/naturardb/controllers/compuestos.py", line 516\n    print form.vars.reference\n    ^\nIndentationError: unexpected indent\n'
p139
s.