(dp1
S'output'
p2
S"<type 'exceptions.TypeError'> strptime() argument 1 must be string, not int"
p3
sS'layer'
p4
S'/home/mjl/Dropbox/FITOMEDICINA/web2py/applications/naturardb/controllers/submission.py'
p5
sS'code'
p6
S'# -*- coding: utf-8 -*-\n# this file is released under public domain and you can use without limitations\n\n#########################################################################\n## This is a sample controller\n## - index is the default action of any application\n## - user is required for authentication and authorization\n## - download is for downloading files uploaded in the db (does streaming)\n#########################################################################\nfrom rdkit import Chem\nfrom rdkit.Chem import Draw\nfrom rdkit.Chem import AllChem\nimport os.path \nfrom os import rename\n\n\ndef synonymlist(row):\n    synonyms = db((db.tmpsynonym.compoundsubmission_id == row.compoundsubmission.id)).select()\n    return \', \'.join(synonym.synonymname for synonym in synonyms)\n\n    \ndef compound_to_approve():\n    """\n    action to show a list of compounds\n    """\n    #~ db.compoundsubmission.synonym = Field.Virtual(\'synonym\', synonymlist)\n    #~ db.compoundsubmission.id.readable = False\n    query = db(db.compoundsubmission.approved==False)\n    compoundsubmission = SQLFORM.grid(query,create=False,editable=False,deletable=False,\n    links=[lambda row: A(\'Aprobar\',_href=URL("submission","compound_approval",args=[row.id]))],\n    paginate=10,\n    fields=[db.compoundsubmission.id ,db.compoundsubmission.inputsmiles,db.compoundsubmission.synonym])\n    return dict(compoundsubmission = compoundsubmission) \n\n#~ @auth.requires_membership(\'managers\')\n\n\ndef compound_approval():\n    tmpcompoundid = request.args(0, cast=int)\n    tmpcompound = db.compoundsubmission(id=tmpcompoundid) or redirect(URL(\'index\'))\n    \n    if tmpcompound[\'approved\'] == False:\n        #insert new compound\n        compound_id = db.compound.insert(inchi=tmpcompound[\'inchi\'],\n        inchikey=tmpcompound[\'inchikey\'],\n        isosmiles=tmpcompound[\'isosmiles\'],\n        cansmiles=tmpcompound[\'cansmiles\'],\n        addinfo=tmpcompound[\'addinfo\'],\n        synonym=tmpcompound[\'synonym\'],\n        )\n        \n        #change image file name and imagepath\n        imagepath = tmpcompound[\'imagepath\'].replace("tmp%i"%tmpcompoundid, str(compound_id))\n        db(db.compound.id == compound_id).update(imagepath=imagepath)\n        #~ print os.path.join(request.folder,tmpcompound[\'imagepath\'])\n        #~ print imagepath\n        try:\n            tmpfullimagepath = os.path.join(request.folder,tmpcompound[\'imagepath\'])\n            fullimagepath = os.path.join(request.folder,imagepath)\n            os.rename(tmpfullimagepath,fullimagepath)\n        except:\n            print "ERROR: problem to rename %s"%(tmpcompound[\'imagepath\'])\n        \n        # get tmpdocs related to this compoundsubmission\n        tmpdocdic = db(db.tmpdoc.compoundsubmission_id==tmpcompoundid).select().as_dict()\n        \n        # check if tmpdoc is in doc else is inserted\n        for reference, data in tmpdocdic.iteritems():\n            print "data"\n            print data\n            #check if this reference is stored in doc table\n            row = db.doc(doi=data[\'doi\'])\n            if not row:\n                docid = db.doc.insert(**db.doc._filter_fields(data))\n            else:\n                docid = row.id\n            \n            db.compound_doc.insert(compound_id=compound_id,\n            doc_id=docid\n            )\n            db(db.tmpdoc.id==data[\'id\']).update(approved=True)\n        # insert rdkitstructure\n        db.rdkitstructure.insert(rdkitstructure=tmpcompound[\'rdkitstructure\'],\n        compound_id=compound_id,\n        )\n        \n        # insert mol structure\n        db.molstructure.insert(molstructure=tmpcompound[\'molstructure\'],\n        compound_id=compound_id,\n        )\n        \n        #~ # insert synonyms\n        #~ for synonym in tmpcompound[\'synonym\']:\n            #~ db.synonym.insert(synonymname=synonym,\n            #~ compound_id=compound_id,\n            #~ )\n\n        # calculate and insert descriptors\n        descriptors = calculate_descriptors(tmpcompound[\'isosmiles\'])\n        db.compoundproperty.insert(   \n        compound_id = compound_id,\n        molecularweight = descriptors["ExactMolWt"],\n        tpsa = descriptors["TPSA"],\n        numrotatable = descriptors["NumRotatableBonds"],\n        logp = descriptors["MolLogP"],\n        hbd = descriptors["NumHDonors"],\n        hba = descriptors["NumHAcceptors"],\n        numring = descriptors["CalcNumRings"],\n        #~ molecularvolume = descriptors["MolVol"],\n        numro5violation = descriptors["numro5violation"],\n        molecularformula = descriptors["molecularformula"], \n        )\n        \n        \n        #~ Field(\'molecularvolume\', type=\'decimal(10,3)\', label="volumen"),\n        #~ Field(\'numn\', type=\'integer\'),\n        #~ Field(\'numo\', type=\'integer\'),\n        #~ Field(\'nums\', type=\'integer\'),\n\n        #~ )    \n        \n        # Change state of submission to approved\n        db(db.compoundsubmission.id==tmpcompoundid).update(approved=True)\n        \n        return dict(row={\'msj\':T(\'Compound submission ID %i was approved. Now you can access to this compound with the ID %i\')%(tmpcompoundid,compound_id)})\n    else:\n        return dict(row={\'msj\':T(\'This submission was closed\')})\n\n\n# COMPOUNDS\n\ndef submit_compound_processing(form):\n        #check if extension file is .mol\n        if IS_UPLOAD_FILENAME(extension=\'mol\')(form.vars.molstructure)[1] == None:\n            #check if file is a mol file in correct format\n            if is_valid_ctab(form.vars.molstructure.value) == True: \n                pass\n            else:\n                form.errors.molstructure = T(\'You must introduce a mol structure file with correct format.\')\n        elif form.vars.inputsmiles:\n            if is_valid_smiles(form.vars.inputsmiles)==True:\n                pass\n            else: \n                form.errors.inputsmiles = T(\'SMILES has an error, please check\')\n        else:\n            form.errors.inputsmiles = T(\'You must introduce an structure using an smiles or uploading a file\') \n            \n\'\'\'\nSubmition of a new compound. \nThis data is store in temporal tables\n\'\'\'\ndef submit_compound():\n    # (1) Build the form\n    form = SQLFORM.factory(\n        Field(\'molstructure\', type=\'upload\', uploadfolder=os.path.join(request.folder,\'static/temp\')), \n        db.compoundsubmission,\n        #~ Field(\'inputselector\',requires=IS_IN_SET([\'Smile\',\'Draw\',\'File\']),widget=SQLFORM.widgets.radio.widget),\n        #~ Field(\'synonyms\', type=\'list:string\', requires=IS_NOT_EMPTY()),\n        Field(\'reference\', type=\'list:string\'),\n        Field(\'comment\', type=\'text\'),\n    )\n\n    # (2) Validate form data\n    if form.process(onvalidation=submit_compound_processing).accepted:\n        # (3) Insert compound\n        compoundsubmission_id = db.compoundsubmission.insert(\n            **db.compoundsubmission._filter_fields(form.vars))\n        print \'compoundsub %i\'%(compoundsubmission_id)\n       \n        # (3) Insert structure\n        # if a mol file was uploaded\n        if compoundsubmission_id and form.vars.molstructure:\n            molfilename = os.path.join(request.folder,\'static/temp/\') + form.vars.molstructure\n            rdkitmol = Chem.MolFromMolFile(molfilename)\n            mol_data = file(molfilename,\'r\').read()\n            cansmiles = Chem.MolToSmiles(rdkitmol)\n            isosmiles = Chem.MolToSmiles(rdkitmol,isomericSmiles=True)\n            smiles_data = None\n            inchi = Chem.MolToInchi(rdkitmol)\n            inchikey =Chem.InchiToInchiKey(inchi)\n        # if smiles was loaded\n        elif compoundsubmission_id and form.vars.inputsmiles:\n            rdkitmol = Chem.MolFromSmiles(form.vars.inputsmiles)\n            rdkitmol = Chem.AddHs(rdkitmol)\n            AllChem.EmbedMolecule(rdkitmol)\n            AllChem.UFFOptimizeMolecule(rdkitmol)\n            mol_data = Chem.MolToMolBlock(rdkitmol)\n            smiles_data = form.vars.inputsmiles\n            cansmiles = Chem.CanonSmiles(smiles_data)\n            isosmiles = Chem.MolToSmiles(rdkitmol,isomericSmiles=True)\n            inchi = Chem.MolToInchi(rdkitmol)\n            inchikey =Chem.InchiToInchiKey(inchi)\n        \n        # (3) Insert reference\n        if compoundsubmission_id and form.vars.reference:\n            referencelst = form.vars.reference\n            # if there is only a reference, this is convert to a list\n            if type(referencelst) == str:\n                referencelst = [referencelst]\n            for reference in referencelst:\n                doc = input2doc(reference)\n                doc["compoundsubmission_id"]=compoundsubmission_id\n                print doc\n                db.tmpdoc.insert(**db.tmpdoc._filter_fields(doc))\n            #~ elif not row.nearest: \n                #~ row.update_record(nearset=nearest)\n        else: pass # do nothing \n        \n        #create molecular image from smiles \n        if compoundsubmission_id:   \n            imagepath = settings.imagedir+"c_tmp" + str(compoundsubmission_id)+".png"\n            row = db(db.compoundsubmission.id==compoundsubmission_id).select().first()\n            row.update_record(imagepath=imagepath)\n            fullimagepath = os.path.join(request.folder,imagepath)\n            create_molimage(isosmiles,fullimagepath)\n        \n        print compoundsubmission_id\n        print "\\n"*4\n        # Add smiles and structures\n        db.executesql("UPDATE compoundsubmission SET inputsmiles =\'%s\'::cstring, molstructure =\'%s\'::cstring, rdkitstructure =mol_from_ctab(\'%s\'::cstring), addinfo=\'%s\'::cstring, isosmiles=\'%s\'::cstring, cansmiles=\'%s\'::cstring, inchi=\'%s\'::cstring, inchikey=\'%s\'::cstring WHERE id=\'%i\';"%(smiles_data, mol_data, mol_data, form.vars.addinfo, isosmiles, cansmiles, inchi, inchikey, compoundsubmission_id))\n        response.flash = T(\'Compound has been uploaded successfully.\')\n    content = form\n  \n    return dict(content=content)\n\n\n\n\n\nresponse._vars=response._caller(submit_compound)\n'
p7
sS'snapshot'
p8
(dp9
S'exception'
p10
(dp11
S'__hash__'
p12
S"<method-wrapper '__hash__' of exceptions.TypeError object>"
p13
sS'__setattr__'
p14
S"<method-wrapper '__setattr__' of exceptions.TypeError object>"
p15
sS'__reduce_ex__'
p16
S'<built-in method __reduce_ex__ of exceptions.TypeError object>'
p17
sS'__getslice__'
p18
S"<method-wrapper '__getslice__' of exceptions.TypeError object>"
p19
sS'__getitem__'
p20
S"<method-wrapper '__getitem__' of exceptions.TypeError object>"
p21
sS'__setstate__'
p22
S'<built-in method __setstate__ of exceptions.TypeError object>'
p23
sS'args'
p24
S"('strptime() argument 1 must be string, not int',)"
p25
sS'__reduce__'
p26
S'<built-in method __reduce__ of exceptions.TypeError object>'
p27
sS'__str__'
p28
S"<method-wrapper '__str__' of exceptions.TypeError object>"
p29
sS'__format__'
p30
S'<built-in method __format__ of exceptions.TypeError object>'
p31
sS'__getattribute__'
p32
S"<method-wrapper '__getattribute__' of exceptions.TypeError object>"
p33
sS'__class__'
p34
S"<type 'exceptions.TypeError'>"
p35
sS'__unicode__'
p36
S'<built-in method __unicode__ of exceptions.TypeError object>'
p37
sS'__delattr__'
p38
S"<method-wrapper '__delattr__' of exceptions.TypeError object>"
p39
sS'__subclasshook__'
p40
S'<built-in method __subclasshook__ of type object>'
p41
sS'__repr__'
p42
S"<method-wrapper '__repr__' of exceptions.TypeError object>"
p43
sS'__dict__'
p44
S'{}'
p45
sS'__sizeof__'
p46
S'<built-in method __sizeof__ of exceptions.TypeError object>'
p47
sS'__doc__'
p48
S"'Inappropriate argument type.'"
p49
sS'__init__'
p50
S"<method-wrapper '__init__' of exceptions.TypeError object>"
p51
sS'__new__'
p52
S'<built-in method __new__ of type object>'
p53
ssS'evalue'
p54
S'strptime() argument 1 must be string, not int'
p55
sS'request'
p56
cgluon.html
XML_unpickle
p57
(S's\x96\\\x00\x00<div><table><tr><td style="font-weight:bold;vertical-align:top;">ajax</td><td style="vertical-align:top;">:</td><td><div>False</div></td></tr><tr><td style="font-weight:bold;vertical-align:top;">application</td><td style="vertical-align:top;">:</td><td><div>naturardb</div></td></tr><tr><td style="font-weight:bold;vertical-align:top;">args</td><td style="vertical-align:top;">:</td><td><div><table></table></div></td></tr><tr><td style="font-weight:bold;vertical-align:top;">cid</td><td style="vertical-align:top;">:</td><td><div>None</div></td></tr><tr><td style="font-weight:bold;vertical-align:top;">client</td><td style="vertical-align:top;">:</td><td><div>190.191.164.16</div></td></tr><tr><td style="font-weight:bold;vertical-align:top;">controller</td><td style="vertical-align:top;">:</td><td><div>submission</div></td></tr><tr><td style="font-weight:bold;vertical-align:top;">cookies</td><td style="vertical-align:top;">:</td><td><div><table><tr><td style="font-weight:bold;vertical-align:top;">session_id_admin</td><td style="vertical-align:top;">:</td><td><div>190.191.164.16-10a90f32-18a4-4e64-84be-00fd25b4adc8<table><tr><td style="font-weight:bold;vertical-align:top;">comment</td><td style="vertical-align:top;">:</td><td><div></div></td></tr><tr><td style="font-weight:bold;vertical-align:top;">domain</td><td style="vertical-align:top;">:</td><td><div></div></td></tr><tr><td style="font-weight:bold;vertical-align:top;">expires</td><td style="vertical-align:top;">:</td><td><div></div></td></tr><tr><td style="font-weight:bold;vertical-align:top;">httponly</td><td style="vertical-align:top;">:</td><td><div></div></td></tr><tr><td style="font-weight:bold;vertical-align:top;">max-age</td><td style="vertical-align:top;">:</td><td><div></div></td></tr><tr><td style="font-weight:bold;vertical-align:top;">path</td><td style="vertical-align:top;">:</td><td><div></div></td></tr><tr><td style="font-weight:bold;vertical-align:top;">secure</td><td style="vertical-align:top;">:</td><td><div></div></td></tr><tr><td style="font-weight:bold;vertical-align:top;">version</td><td style="vertical-align:top;">:</td><td><div></div></td></tr></table></div></td></tr><tr><td style="font-weight:bold;vertical-align:top;">session_id_naturardb</td><td style="vertical-align:top;">:</td><td><div>190.191.164.16-a1a52a1e-1c29-440d-94ae-ecd2a1a0f0f9<table><tr><td style="font-weight:bold;vertical-align:top;">comment</td><td style="vertical-align:top;">:</td><td><div></div></td></tr><tr><td style="font-weight:bold;vertical-align:top;">domain</td><td style="vertical-align:top;">:</td><td><div></div></td></tr><tr><td style="font-weight:bold;vertical-align:top;">expires</td><td style="vertical-align:top;">:</td><td><div></div></td></tr><tr><td style="font-weight:bold;vertical-align:top;">httponly</td><td style="vertical-align:top;">:</td><td><div></div></td></tr><tr><td style="font-weight:bold;vertical-align:top;">max-age</td><td style="vertical-align:top;">:</td><td><div></div></td></tr><tr><td style="font-weight:bold;vertical-align:top;">path</td><td style="vertical-align:top;">:</td><td><div></div></td></tr><tr><td style="font-weight:bold;vertical-align:top;">secure</td><td style="vertical-align:top;">:</td><td><div></div></td></tr><tr><td style="font-weight:bold;vertical-align:top;">version</td><td style="vertical-align:top;">:</td><td><div></div></td></tr></table></div></td></tr></table></div></td></tr><tr><td style="font-weight:bold;vertical-align:top;">env</td><td style="vertical-align:top;">:</td><td><div><table><tr><td style="font-weight:bold;vertical-align:top;">CONTENT_LENGTH</td><td style="vertical-align:top;">:</td><td><div>8131</div></td></tr><tr><td style="font-weight:bold;vertical-align:top;">CONTENT_TYPE</td><td style="vertical-align:top;">:</td><td><div>multipart/form-data; boundary=---------------------------167675126585372274856308579</div></td></tr><tr><td style="font-weight:bold;vertical-align:top;">HTTP_ACCEPT</td><td style="vertical-align:top;">:</td><td><div>text/html,application/xhtml+xml,application/xml;q=0.9,*/*;q=0.8</div></td></tr><tr><td style="font-weight:bold;vertical-align:top;">HTTP_ACCEPT_ENCODING</td><td style="vertical-align:top;">:</td><td><div>gzip, deflate</div></td></tr><tr><td style="font-weight:bold;vertical-align:top;">HTTP_ACCEPT_LANGUAGE</td><td style="vertical-align:top;">:</td><td><div>en-US,en;q=0.5</div></td></tr><tr><td style="font-weight:bold;vertical-align:top;">HTTP_CONNECTION</td><td style="vertical-align:top;">:</td><td><div>keep-alive</div></td></tr><tr><td style="font-weight:bold;vertical-align:top;">HTTP_CONTENT_LENGTH</td><td style="vertical-align:top;">:</td><td><div>8131</div></td></tr><tr><td style="font-weight:bold;vertical-align:top;">HTTP_CONTENT_TYPE</td><td style="vertical-align:top;">:</td><td><div>multipart/form-data; boundary=---------------------------167675126585372274856308579</div></td></tr><tr><td style="font-weight:bold;vertical-align:top;">HTTP_COOKIE</td><td style="vertical-align:top;">:</td><td><div>session_id_naturardb=190.191.164.16-a1a52a1e-1c29-440d-94ae-ecd2a1a0f0f9; session_id_admin=190.191.164.16-10a90f32-18a4-4e64-84be-00fd25b4adc8</div></td></tr><tr><td style="font-weight:bold;vertical-align:top;">HTTP_HOST</td><td style="vertical-align:top;">:</td><td><div>163.10.79.164:8000</div></td></tr><tr><td style="font-weight:bold;vertical-align:top;">HTTP_REFERER</td><td style="vertical-align:top;">:</td><td><div>http://163.10.79.164:8000/naturardb/submission/submit_compound</div></td></tr><tr><td style="font-weight:bold;vertical-align:top;">HTTP_UPGRADE_INSECURE_REQUESTS</td><td style="vertical-align:top;">:</td><td><div>1</div></td></tr><tr><td style="font-weight:bold;vertical-align:top;">HTTP_USER_AGENT</td><td style="vertical-align:top;">:</td><td><div>Mozilla/5.0 (X11; Ubuntu; Linux x86_64; rv:52.0) Gecko/20100101 Firefox/52.0</div></td></tr><tr><td style="font-weight:bold;vertical-align:top;">PATH_INFO</td><td style="vertical-align:top;">:</td><td><div>/naturardb/submission/submit_compound</div></td></tr><tr><td style="font-weight:bold;vertical-align:top;">QUERY_STRING</td><td style="vertical-align:top;">:</td><td><div></div></td></tr><tr><td style="font-weight:bold;vertical-align:top;">REMOTE_ADDR</td><td style="vertical-align:top;">:</td><td><div>190.191.164.16</div></td></tr><tr><td style="font-weight:bold;vertical-align:top;">REMOTE_PORT</td><td style="vertical-align:top;">:</td><td><div>49204</div></td></tr><tr><td style="font-weight:bold;vertical-align:top;">REQUEST_METHOD</td><td style="vertical-align:top;">:</td><td><div>POST</div></td></tr><tr><td style="font-weight:bold;vertical-align:top;">SCRIPT_NAME</td><td style="vertical-align:top;">:</td><td><div></div></td></tr><tr><td style="font-weight:bold;vertical-align:top;">SERVER_NAME</td><td style="vertical-align:top;">:</td><td><div>Atomus</div></td></tr><tr><td style="font-weight:bold;vertical-align:top;">SERVER_PORT</td><td style="vertical-align:top;">:</td><td><div>8000</div></td></tr><tr><td style="font-weight:bold;vertical-align:top;">SERVER_PROTOCOL</td><td style="vertical-align:top;">:</td><td><div>HTTP/1.1</div></td></tr><tr><td style="font-weight:bold;vertical-align:top;">SERVER_SOFTWARE</td><td style="vertical-align:top;">:</td><td><div>Rocket 1.2.6</div></td></tr><tr><td style="font-weight:bold;vertical-align:top;">app_folders</td><td style="vertical-align:top;">:</td><td><div>set([&#x27;/home/mjl/Dropbox/FITOMEDICINA/web2py/applications/admin/&#x27;, &#x27;/home/mjl/Dropbox/FITOMEDICINA/web2py/applications/welcome/&#x27;, &#x27;/home/mjl/Dropbox/FITOMEDICINA/web2py/applications/naturardb/&#x27;])</div></td></tr><tr><td style="font-weight:bold;vertical-align:top;">applications_parent</td><td style="vertical-align:top;">:</td><td><div>/home/mjl/Dropbox/FITOMEDICINA/web2py</div></td></tr><tr><td style="font-weight:bold;vertical-align:top;">cmd_args</td><td style="vertical-align:top;">:</td><td><div><table></table></div></td></tr><tr><td style="font-weight:bold;vertical-align:top;">cmd_options</td><td style="vertical-align:top;">:</td><td><div>&lt;Values at 0x2b8806e31c20: {&#x27;verbose&#x27;: False, &#x27;ip&#x27;: &#x27;127.0.0.1&#x27;, &#x27;debuglevel&#x27;: 30, &#x27;with_scheduler&#x27;: False, &#x27;shutdown_timeout&#x27;: 5, &#x27;taskbar&#x27;: False, &#x27;with_coverage&#x27;: False, &#x27;pid_filename&#x27;: &#x27;httpserver.pid&#x27;, &#x27;maxthreads&#x27;: None, &#x27;softcron&#x27;: False, &#x27;server_name&#x27;: &#x27;Atomus&#x27;, &#x27;bpython&#x27;: False, &#x27;nogui&#x27;: False, &#x27;port&#x27;: 8000, &#x27;print_errors&#x27;: False, &#x27;extcron&#x27;: False, &#x27;runcron&#x27;: False, &#x27;run_system_tests&#x27;: False, &#x27;test&#x27;: None, &#x27;folder&#x27;: &#x27;/home/mjl/Dropbox/FITOMEDICINA/web2py&#x27;, &#x27;config&#x27;: &#x27;&#x27;, &#x27;minthreads&#x27;: None, &#x27;shell&#x27;: None, &#x27;run&#x27;: &#x27;&#x27;, &#x27;log_filename&#x27;: &#x27;httpserver.log&#x27;, &#x27;profiler_dir&#x27;: None, &#x27;args&#x27;: [&#x27;&#x27;], &#x27;socket_timeout&#x27;: 5, &#x27;ssl_ca_certificate&#x27;: None, &#x27;scheduler&#x27;: None, &#x27;interfaces&#x27;: None, &#x27;ssl_private_key&#x27;: &#x27;&#x27;, &#x27;gae&#x27;: None, &#x27;password&#x27;: &#x27;******&#x27;, &#x27;request_queue_size&#x27;: 5, &#x27;ssl_certificate&#x27;: &#x27;&#x27;, &#x27;cronjob&#x27;: False, &#x27;numthreads&#x27;: None, &#x27;quiet&#x27;: False, &#x27;import_models&#x27;: False, &#x27;timeout&#x27;: 10, &#x27;plain&#x27;: False, &#x27;nobanner&#x27;: False}&gt;</div></td></tr><tr><td style="font-weight:bold;vertical-align:top;">content_length</td><td style="vertical-align:top;">:</td><td><div>8131</div></td></tr><tr><td style="font-weight:bold;vertical-align:top;">content_type</td><td style="vertical-align:top;">:</td><td><div>multipart/form-data; boundary=---------------------------167675126585372274856308579</div></td></tr><tr><td style="font-weight:bold;vertical-align:top;">db_sessions</td><td style="vertical-align:top;">:</td><td><div>set([])</div></td></tr><tr><td style="font-weight:bold;vertical-align:top;">debugging</td><td style="vertical-align:top;">:</td><td><div>False</div></td></tr><tr><td style="font-weight:bold;vertical-align:top;">gluon_parent</td><td style="vertical-align:top;">:</td><td><div>/home/mjl/Dropbox/FITOMEDICINA/web2py</div></td></tr><tr><td style="font-weight:bold;vertical-align:top;">http_accept</td><td style="vertical-align:top;">:</td><td><div>text/html,application/xhtml+xml,application/xml;q=0.9,*/*;q=0.8</div></td></tr><tr><td style="font-weight:bold;vertical-align:top;">http_accept_encoding</td><td style="vertical-align:top;">:</td><td><div>gzip, deflate</div></td></tr><tr><td style="font-weight:bold;vertical-align:top;">http_accept_language</td><td style="vertical-align:top;">:</td><td><div>en-US,en;q=0.5</div></td></tr><tr><td style="font-weight:bold;vertical-align:top;">http_connection</td><td style="vertical-align:top;">:</td><td><div>keep-alive</div></td></tr><tr><td style="font-weight:bold;vertical-align:top;">http_content_length</td><td style="vertical-align:top;">:</td><td><div>8131</div></td></tr><tr><td style="font-weight:bold;vertical-align:top;">http_content_type</td><td style="vertical-align:top;">:</td><td><div>multipart/form-data; boundary=---------------------------167675126585372274856308579</div></td></tr><tr><td style="font-weight:bold;vertical-align:top;">http_cookie</td><td style="vertical-align:top;">:</td><td><div>session_id_naturardb=190.191.164.16-a1a52a1e-1c29-440d-94ae-ecd2a1a0f0f9; session_id_admin=190.191.164.16-10a90f32-18a4-4e64-84be-00fd25b4adc8</div></td></tr><tr><td style="font-weight:bold;vertical-align:top;">http_host</td><td style="vertical-align:top;">:</td><td><div>163.10.79.164:8000</div></td></tr><tr><td style="font-weight:bold;vertical-align:top;">http_referer</td><td style="vertical-align:top;">:</td><td><div>http://163.10.79.164:8000/naturardb/submission/submit_compound</div></td></tr><tr><td style="font-weight:bold;vertical-align:top;">http_upgrade_insecure_requests</td><td style="vertical-align:top;">:</td><td><div>1</div></td></tr><tr><td style="font-weight:bold;vertical-align:top;">http_user_agent</td><td style="vertical-align:top;">:</td><td><div>Mozilla/5.0 (X11; Ubuntu; Linux x86_64; rv:52.0) Gecko/20100101 Firefox/52.0</div></td></tr><tr><td style="font-weight:bold;vertical-align:top;">is_jython</td><td style="vertical-align:top;">:</td><td><div>False</div></td></tr><tr><td style="font-weight:bold;vertical-align:top;">is_pypy</td><td style="vertical-align:top;">:</td><td><div>False</div></td></tr><tr><td style="font-weight:bold;vertical-align:top;">is_source</td><td style="vertical-align:top;">:</td><td><div>True</div></td></tr><tr><td style="font-weight:bold;vertical-align:top;">local_hosts</td><td style="vertical-align:top;">:</td><td><div><table><tr><td><div>Atomus</div></td></tr><tr><td><div>::1</div></td></tr><tr><td><div>127.0.1.1</div></td></tr><tr><td><div>::ffff:127.0.0.1</div></td></tr><tr><td><div>127.0.0.1</div></td></tr></table></div></td></tr><tr><td style="font-weight:bold;vertical-align:top;">path_info</td><td style="vertical-align:top;">:</td><td><div>/naturardb/submission/submit_compound</div></td></tr><tr><td style="font-weight:bold;vertical-align:top;">query_string</td><td style="vertical-align:top;">:</td><td><div></div></td></tr><tr><td style="font-weight:bold;vertical-align:top;">remote_addr</td><td style="vertical-align:top;">:</td><td><div>190.191.164.16</div></td></tr><tr><td style="font-weight:bold;vertical-align:top;">remote_port</td><td style="vertical-align:top;">:</td><td><div>49204</div></td></tr><tr><td style="font-weight:bold;vertical-align:top;">request_method</td><td style="vertical-align:top;">:</td><td><div>POST</div></td></tr><tr><td style="font-weight:bold;vertical-align:top;">request_uri</td><td style="vertical-align:top;">:</td><td><div>/naturardb/submission/submit_compound</div></td></tr><tr><td style="font-weight:bold;vertical-align:top;">script_name</td><td style="vertical-align:top;">:</td><td><div></div></td></tr><tr><td style="font-weight:bold;vertical-align:top;">server_name</td><td style="vertical-align:top;">:</td><td><div>Atomus</div></td></tr><tr><td style="font-weight:bold;vertical-align:top;">server_port</td><td style="vertical-align:top;">:</td><td><div>8000</div></td></tr><tr><td style="font-weight:bold;vertical-align:top;">server_protocol</td><td style="vertical-align:top;">:</td><td><div>HTTP/1.1</div></td></tr><tr><td style="font-weight:bold;vertical-align:top;">server_software</td><td style="vertical-align:top;">:</td><td><div>Rocket 1.2.6</div></td></tr><tr><td style="font-weight:bold;vertical-align:top;">web2py_path</td><td style="vertical-align:top;">:</td><td><div>/home/mjl/Dropbox/FITOMEDICINA/web2py</div></td></tr><tr><td style="font-weight:bold;vertical-align:top;">web2py_version</td><td style="vertical-align:top;">:</td><td><div>2.14.3-stable+timestamp.2016.03.26.23.02.02</div></td></tr><tr><td style="font-weight:bold;vertical-align:top;">wsgi.errors</td><td style="vertical-align:top;">:</td><td><div>&lt;open file &#x27;&lt;stderr&gt;&#x27;, mode &#x27;w&#x27; at 0x2b87feb681e0&gt;</div></td></tr><tr><td style="font-weight:bold;vertical-align:top;">wsgi.file_wrapper</td><td style="vertical-align:top;">:</td><td><div>&lt;class wsgiref.util.FileWrapper at 0x2b8806de3668&gt;</div></td></tr><tr><td style="font-weight:bold;vertical-align:top;">wsgi.input</td><td style="vertical-align:top;">:</td><td><div>&lt;socket._fileobject object at 0x2b8851a82e50&gt;</div></td></tr><tr><td style="font-weight:bold;vertical-align:top;">wsgi.multiprocess</td><td style="vertical-align:top;">:</td><td><div>False</div></td></tr><tr><td style="font-weight:bold;vertical-align:top;">wsgi.multithread</td><td style="vertical-align:top;">:</td><td><div>True</div></td></tr><tr><td style="font-weight:bold;vertical-align:top;">wsgi.run_once</td><td style="vertical-align:top;">:</td><td><div>False</div></td></tr><tr><td style="font-weight:bold;vertical-align:top;">wsgi.url_scheme</td><td style="vertical-align:top;">:</td><td><div>http</div></td></tr><tr><td style="font-weight:bold;vertical-align:top;">wsgi.version</td><td style="vertical-align:top;">:</td><td><div><table><tr><td><div>1</div></td></tr><tr><td><div>0</div></td></tr></table></div></td></tr><tr><td style="font-weight:bold;vertical-align:top;">wsgi_errors</td><td style="vertical-align:top;">:</td><td><div>&lt;open file &#x27;&lt;stderr&gt;&#x27;, mode &#x27;w&#x27; at 0x2b87feb681e0&gt;</div></td></tr><tr><td style="font-weight:bold;vertical-align:top;">wsgi_file_wrapper</td><td style="vertical-align:top;">:</td><td><div>&lt;class wsgiref.util.FileWrapper at 0x2b8806de3668&gt;</div></td></tr><tr><td style="font-weight:bold;vertical-align:top;">wsgi_input</td><td style="vertical-align:top;">:</td><td><div>&lt;socket._fileobject object at 0x2b8851a82e50&gt;</div></td></tr><tr><td style="font-weight:bold;vertical-align:top;">wsgi_multiprocess</td><td style="vertical-align:top;">:</td><td><div>False</div></td></tr><tr><td style="font-weight:bold;vertical-align:top;">wsgi_multithread</td><td style="vertical-align:top;">:</td><td><div>True</div></td></tr><tr><td style="font-weight:bold;vertical-align:top;">wsgi_run_once</td><td style="vertical-align:top;">:</td><td><div>False</div></td></tr><tr><td style="font-weight:bold;vertical-align:top;">wsgi_url_scheme</td><td style="vertical-align:top;">:</td><td><div>http</div></td></tr><tr><td style="font-weight:bold;vertical-align:top;">wsgi_version</td><td style="vertical-align:top;">:</td><td><div><table><tr><td><div>1</div></td></tr><tr><td><div>0</div></td></tr></table></div></td></tr></table></div></td></tr><tr><td style="font-weight:bold;vertical-align:top;">extension</td><td style="vertical-align:top;">:</td><td><div>html</div></td></tr><tr><td style="font-weight:bold;vertical-align:top;">folder</td><td style="vertical-align:top;">:</td><td><div>/home/mjl/Dropbox/FITOMEDICINA/web2py/applications/naturardb/</div></td></tr><tr><td style="font-weight:bold;vertical-align:top;">function</td><td style="vertical-align:top;">:</td><td><div>submit_compound</div></td></tr><tr><td style="font-weight:bold;vertical-align:top;">global_settings</td><td style="vertical-align:top;">:</td><td><div><table><tr><td style="font-weight:bold;vertical-align:top;">app_folders</td><td style="vertical-align:top;">:</td><td><div>set([&#x27;/home/mjl/Dropbox/FITOMEDICINA/web2py/applications/admin/&#x27;, &#x27;/home/mjl/Dropbox/FITOMEDICINA/web2py/applications/welcome/&#x27;, &#x27;/home/mjl/Dropbox/FITOMEDICINA/web2py/applications/naturardb/&#x27;])</div></td></tr><tr><td style="font-weight:bold;vertical-align:top;">applications_parent</td><td style="vertical-align:top;">:</td><td><div>/home/mjl/Dropbox/FITOMEDICINA/web2py</div></td></tr><tr><td style="font-weight:bold;vertical-align:top;">cmd_args</td><td style="vertical-align:top;">:</td><td><div><table></table></div></td></tr><tr><td style="font-weight:bold;vertical-align:top;">cmd_options</td><td style="vertical-align:top;">:</td><td><div>&lt;Values at 0x2b8806e31c20: {&#x27;verbose&#x27;: False, &#x27;ip&#x27;: &#x27;127.0.0.1&#x27;, &#x27;debuglevel&#x27;: 30, &#x27;with_scheduler&#x27;: False, &#x27;shutdown_timeout&#x27;: 5, &#x27;taskbar&#x27;: False, &#x27;with_coverage&#x27;: False, &#x27;pid_filename&#x27;: &#x27;httpserver.pid&#x27;, &#x27;maxthreads&#x27;: None, &#x27;softcron&#x27;: False, &#x27;server_name&#x27;: &#x27;Atomus&#x27;, &#x27;bpython&#x27;: False, &#x27;nogui&#x27;: False, &#x27;port&#x27;: 8000, &#x27;print_errors&#x27;: False, &#x27;extcron&#x27;: False, &#x27;runcron&#x27;: False, &#x27;run_system_tests&#x27;: False, &#x27;test&#x27;: None, &#x27;folder&#x27;: &#x27;/home/mjl/Dropbox/FITOMEDICINA/web2py&#x27;, &#x27;config&#x27;: &#x27;&#x27;, &#x27;minthreads&#x27;: None, &#x27;shell&#x27;: None, &#x27;run&#x27;: &#x27;&#x27;, &#x27;log_filename&#x27;: &#x27;httpserver.log&#x27;, &#x27;profiler_dir&#x27;: None, &#x27;args&#x27;: [&#x27;&#x27;], &#x27;socket_timeout&#x27;: 5, &#x27;ssl_ca_certificate&#x27;: None, &#x27;scheduler&#x27;: None, &#x27;interfaces&#x27;: None, &#x27;ssl_private_key&#x27;: &#x27;&#x27;, &#x27;gae&#x27;: None, &#x27;password&#x27;: &#x27;******&#x27;, &#x27;request_queue_size&#x27;: 5, &#x27;ssl_certificate&#x27;: &#x27;&#x27;, &#x27;cronjob&#x27;: False, &#x27;numthreads&#x27;: None, &#x27;quiet&#x27;: False, &#x27;import_models&#x27;: False, &#x27;timeout&#x27;: 10, &#x27;plain&#x27;: False, &#x27;nobanner&#x27;: False}&gt;</div></td></tr><tr><td style="font-weight:bold;vertical-align:top;">db_sessions</td><td style="vertical-align:top;">:</td><td><div>set([])</div></td></tr><tr><td style="font-weight:bold;vertical-align:top;">debugging</td><td style="vertical-align:top;">:</td><td><div>False</div></td></tr><tr><td style="font-weight:bold;vertical-align:top;">gluon_parent</td><td style="vertical-align:top;">:</td><td><div>/home/mjl/Dropbox/FITOMEDICINA/web2py</div></td></tr><tr><td style="font-weight:bold;vertical-align:top;">is_jython</td><td style="vertical-align:top;">:</td><td><div>False</div></td></tr><tr><td style="font-weight:bold;vertical-align:top;">is_pypy</td><td style="vertical-align:top;">:</td><td><div>False</div></td></tr><tr><td style="font-weight:bold;vertical-align:top;">is_source</td><td style="vertical-align:top;">:</td><td><div>True</div></td></tr><tr><td style="font-weight:bold;vertical-align:top;">local_hosts</td><td style="vertical-align:top;">:</td><td><div><table><tr><td><div>Atomus</div></td></tr><tr><td><div>::1</div></td></tr><tr><td><div>127.0.1.1</div></td></tr><tr><td><div>::ffff:127.0.0.1</div></td></tr><tr><td><div>127.0.0.1</div></td></tr></table></div></td></tr><tr><td style="font-weight:bold;vertical-align:top;">web2py_version</td><td style="vertical-align:top;">:</td><td><div>2.14.3-stable+timestamp.2016.03.26.23.02.02</div></td></tr></table></div></td></tr><tr><td style="font-weight:bold;vertical-align:top;">is_https</td><td style="vertical-align:top;">:</td><td><div>False</div></td></tr><tr><td style="font-weight:bold;vertical-align:top;">is_local</td><td style="vertical-align:top;">:</td><td><div>False</div></td></tr><tr><td style="font-weight:bold;vertical-align:top;">is_restful</td><td style="vertical-align:top;">:</td><td><div>False</div></td></tr><tr><td style="font-weight:bold;vertical-align:top;">is_scheduler</td><td style="vertical-align:top;">:</td><td><div>False</div></td></tr><tr><td style="font-weight:bold;vertical-align:top;">is_shell</td><td style="vertical-align:top;">:</td><td><div>False</div></td></tr><tr><td style="font-weight:bold;vertical-align:top;">now</td><td style="vertical-align:top;">:</td><td><div>datetime.datetime(2017, 5, 14, 19, 47, 5, 86707)</div></td></tr><tr><td style="font-weight:bold;vertical-align:top;">raw_args</td><td style="vertical-align:top;">:</td><td><div></div></td></tr><tr><td style="font-weight:bold;vertical-align:top;">raw_extension</td><td style="vertical-align:top;">:</td><td><div>None</div></td></tr><tr><td style="font-weight:bold;vertical-align:top;">url</td><td style="vertical-align:top;">:</td><td><div>/naturardb/submission/submit_compound</div></td></tr><tr><td style="font-weight:bold;vertical-align:top;">utcnow</td><td style="vertical-align:top;">:</td><td><div>datetime.datetime(2017, 5, 14, 22, 47, 5, 86722)</div></td></tr><tr><td style="font-weight:bold;vertical-align:top;">wsgi</td><td style="vertical-align:top;">:</td><td><div>&lt;gluon.main.LazyWSGI object at 0x2b88527c7d10&gt;</div></td></tr></table></div>'
tRp58
sS'frames'
p59
(lp60
(dp61
S'file'
p62
S'/home/mjl/Dropbox/FITOMEDICINA/web2py/gluon/restricted.py'
p63
sS'dump'
p64
(dp65
S'environment'
p66
S"{'A': <class 'gluon.html.A'>, 'ANY_OF': <class 'gluon.validators.ANY_OF'>, 'ASSIGNJS': <function ASSIGNJS>, 'AllChem': <module 'rdkit.Chem.AllChem' from '/home/mjl/ana.../python2.7/site-packages/rdkit/Chem/AllChem.pyc'>, 'AppConfig': <function AppConfig>, 'Auth': <class 'gluon.tools.Auth'>, 'B': <class 'gluon.html.B'>, 'BEAUTIFY': <class 'gluon.html.BEAUTIFY'>, 'BODY': <class 'gluon.html.BODY'>, 'BR': <class 'gluon.html.BR'>, ...}"
p67
sS'ccode'
p68
S'<code object <module> at 0x2b8851d800b0, file "/...ns/naturardb/controllers/submission.py", line 10>'
p69
ssS'lnum'
p70
I227
sS'lines'
p71
(dp72
I224
S'            ccode = code'
p73
sI225
S'        else:'
p74
sI226
S'            ccode = compile2(code, layer)'
p75
sI227
S'        exec ccode in environment'
p76
sI228
S'    except HTTP:'
p77
sI229
S'        raise'
p78
sI230
S'    except RestrictedError:'
p79
sI231
S'        # do not encapsulate (obfuscate) the original RestrictedError'
p80
sI222
S'    try:'
p81
sI223
S'        if isinstance(code, types.CodeType):'
p82
ssS'call'
p83
S"(code='# -*- coding: utf-8 -*-\\n# this file is released ...response._vars=response._caller(submit_compound)\\n', environment={'A': <class 'gluon.html.A'>, 'ANY_OF': <class 'gluon.validators.ANY_OF'>, 'ASSIGNJS': <function ASSIGNJS>, 'AllChem': <module 'rdkit.Chem.AllChem' from '/home/mjl/ana.../python2.7/site-packages/rdkit/Chem/AllChem.pyc'>, 'AppConfig': <function AppConfig>, 'Auth': <class 'gluon.tools.Auth'>, 'B': <class 'gluon.html.B'>, 'BEAUTIFY': <class 'gluon.html.BEAUTIFY'>, 'BODY': <class 'gluon.html.BODY'>, 'BR': <class 'gluon.html.BR'>, ...}, layer='/home/mjl/Dropbox/FITOMEDICINA/web2py/applications/naturardb/controllers/submission.py')"
p84
sS'func'
p85
S'restricted'
p86
sa(dp87
g62
S'/home/mjl/Dropbox/FITOMEDICINA/web2py/applications/naturardb/controllers/submission.py'
p88
sg64
(dp89
sg70
I230
sg71
(dp90
I224
S'    return dict(content=content)'
p91
sI225
S''
sI226
S''
sI227
S''
sI228
S''
sI219
S'        # Add smiles and structures'
p92
sI220
S'        db.executesql("UPDATE compoundsubmission SET inputsmiles =\'%s\'::cstring, molstructure =\'%s\'::cstring, rdkitstructure =mol_from_ctab(\'%s\'::cstring), addinfo=\'%s\'::cstring, isosmiles=\'%s\'::cstring, cansmiles=\'%s\'::cstring, inchi=\'%s\'::cstring, inchikey=\'%s\'::cstring WHERE id=\'%i\';"%(smiles_data, mol_data, mol_data, form.vars.addinfo, isosmiles, cansmiles, inchi, inchikey, compoundsubmission_id))'
p93
sI221
S"        response.flash = T('Compound has been uploaded successfully.')"
p94
sI222
S'    content = form'
p95
sI223
S''
ssg83
S'()'
p96
sg85
S'<module>'
p97
sa(dp98
g62
S'/home/mjl/Dropbox/FITOMEDICINA/web2py/gluon/globals.py'
p99
sg64
(dp100
S'self'
p101
S'undefined'
p102
sS'f'
S'<function submit_compound>'
p103
ssg70
I417
sg71
(dp104
I416
S'        self._vars = None'
p105
sI417
S'        self._caller = lambda f: f()'
p106
sI418
S'        self._view_environment = None'
p107
sI419
S'        self._custom_commit = None'
p108
sI420
S'        self._custom_rollback = None'
p109
sI421
S"        self.generic_patterns = ['*']"
p110
sI412
S"        self.flash = ''            # used by the default view layout"
p111
sI413
S'        self.meta = Storage()      # used by web2py_ajax.html'
p112
sI414
S'        self.menu = []             # used by the default view layout'
p113
sI415
S'        self.files = []            # used by web2py_ajax.html'
p114
ssg83
S'(f=<function submit_compound>)'
p115
sg85
S'<lambda>'
p116
sa(dp117
g62
S'/home/mjl/Dropbox/FITOMEDICINA/web2py/applications/naturardb/controllers/submission.py'
p118
sg64
(dp119
S'doc'
p120
g102
sS'global input2doc'
p121
S'<function input2doc>'
p122
sS'reference'
p123
S"'10.1021/np400559p'"
p124
ssg70
I201
sg71
(dp125
I196
S'            referencelst = form.vars.reference'
p126
sI197
S'            # if there is only a reference, this is convert to a list'
p127
sI198
S'            if type(referencelst) == str:'
p128
sI199
S'                referencelst = [referencelst]'
p129
sI200
S'            for reference in referencelst:'
p130
sI201
S'                doc = input2doc(reference)'
p131
sI202
S'                doc["compoundsubmission_id"]=compoundsubmission_id'
p132
sI203
S'                print doc'
p133
sI204
S'                db.tmpdoc.insert(**db.tmpdoc._filter_fields(doc))'
p134
sI205
S'            #~ elif not row.nearest:'
p135
ssg83
S'()'
p136
sg85
S'submit_compound'
p137
sa(dp138
g62
S'/home/mjl/Dropbox/FITOMEDICINA/web2py/applications/naturardb/models/doc.py'
p139
sg64
(dp140
S'referencia'
p141
S"'10.1021/np400559p'"
p142
sS'global doi2doc'
p143
S'<function doi2doc>'
p144
ssg70
I76
sg71
(dp145
I71
S"'''"
p146
sI72
S'def input2doc(referencia):'
p147
sI73
S'    referenciastrip = referencia.replace("-",\'\').replace(" ",\'\')'
p148
sI74
S'    # DOI'
p149
sI75
S"    if referencia.startswith( '10.' ):"
p150
sI76
S'        return doi2doc(referencia)'
p151
sI77
S'    # ISBN13'
p152
sI78
S"    elif (len(referenciastrip)==13) and (referenciastrip.startswith('978') or referenciastrip.startswith('979')):"
p153
sI79
S'        return isbn2doc(referenciastrip)'
p154
sI80
S'    # ISBN10'
p155
ssg83
S"(referencia='10.1021/np400559p')"
p156
sg85
S'input2doc'
p157
sa(dp158
g62
S'/home/mjl/Dropbox/FITOMEDICINA/web2py/applications/naturardb/models/doc.py'
p159
sg64
(dp160
S'doc'
p161
S"{'journal': u'Journal of Natural Products'}"
p162
sS'data'
p163
S"{u'message': {u'DOI': u'10.1021/np400559p', u'ISSN': [u'0163-3864', u'1520-6025'], u'URL': u'http://dx.doi.org/10.1021/np400559p', u'alternative-id': [u'10.1021/np400559p'], u'author': [{u'affiliation': [], u'family': u'Nicotra', u'given': u'Viviana E.'}, {u'affiliation': [], u'family': u'Basso', u'given': u'Ana V.'}, {u'affiliation': [], u'family': u'Ramacciotti', u'given': u'Natalia S.'}, {u'affiliation': [], u'family': u'Misico', u'given': u'Rosana I.'}], u'container-title': [u'Journal of Natural Products'], u'content-domain': {u'crossmark-restriction': False, u'domain': []}, u'created': {u'date-parts': [[2013, 12, 4]], u'date-time': u'2013-12-04T15:35:16Z', u'timestamp': 1386171316000}, u'deposited': {u'date-parts': [[2016, 9, 1]], u'date-time': u'2016-09-01T18:20:28Z', u'timestamp': 1472754028000}, u'indexed': {u'date-parts': [[2017, 5, 13]], u'date-time': u'2017-05-13T10:12:31Z', u'timestamp': 1494670351836}, ...}, u'message-type': u'work', u'message-version': u'1.0.0', u'status': u'ok'}"
p164
sS'datetime.strptime'
p165
S'<built-in method strptime of type object>'
p166
sS'global datetime'
p167
S"<type 'datetime.datetime'>"
p168
ssg70
I15
sg71
(dp169
I10
S'    url = "http://api.crossref.org/works/" + doi'
p170
sI11
S'    response = urllib.urlopen(url)'
p171
sI12
S'    data = json.load(response)'
p172
sI13
S'    doc = {}'
p173
sI14
S"    doc['journal']=data['message']['container-title'][0]"
p174
sI15
S"    doc['year']=datetime.strptime(data['message']['deposited']['date-parts'][0][0], '%Y')"
p175
sI16
S"    doc['volume']=data['message']['volume']"
p176
sI17
S"    doc['issue']=data['message']['issue']"
p177
sI18
S''
sI19
S'    pages = data[\'message\'][\'page\'].split("-")'
p178
ssg83
S"(doi='10.1021/np400559p')"
p179
sg85
S'doi2doc'
p180
sasS'pyver'
p181
S'Python 2.7.13: /home/mjl/anaconda2/envs/my-rdkit-env/bin/python (prefix: /home/mjl/anaconda2/envs/my-rdkit-env)'
p182
sS'session'
p183
g57
(S's\x1a\x00\x00\x00<div><table></table></div>'
tRp184
sS'etype'
p185
S"<type 'exceptions.TypeError'>"
p186
sS'date'
p187
S'Sun May 14 19:47:05 2017'
p188
sS'response'
p189
g57
(S's\xba!\x00\x00<div><table><tr><td style="font-weight:bold;vertical-align:top;">body</td><td style="vertical-align:top;">:</td><td><div>&lt;cStringIO.StringO object at 0x2b88527ce570&gt;</div></td></tr><tr><td style="font-weight:bold;vertical-align:top;">cookies</td><td style="vertical-align:top;">:</td><td><div><table><tr><td style="font-weight:bold;vertical-align:top;">session_id_naturardb</td><td style="vertical-align:top;">:</td><td><div>190.191.164.16-a1a52a1e-1c29-440d-94ae-ecd2a1a0f0f9<table><tr><td style="font-weight:bold;vertical-align:top;">comment</td><td style="vertical-align:top;">:</td><td><div></div></td></tr><tr><td style="font-weight:bold;vertical-align:top;">domain</td><td style="vertical-align:top;">:</td><td><div></div></td></tr><tr><td style="font-weight:bold;vertical-align:top;">expires</td><td style="vertical-align:top;">:</td><td><div></div></td></tr><tr><td style="font-weight:bold;vertical-align:top;">httponly</td><td style="vertical-align:top;">:</td><td><div></div></td></tr><tr><td style="font-weight:bold;vertical-align:top;">max-age</td><td style="vertical-align:top;">:</td><td><div></div></td></tr><tr><td style="font-weight:bold;vertical-align:top;">path</td><td style="vertical-align:top;">:</td><td><div>/</div></td></tr><tr><td style="font-weight:bold;vertical-align:top;">secure</td><td style="vertical-align:top;">:</td><td><div></div></td></tr><tr><td style="font-weight:bold;vertical-align:top;">version</td><td style="vertical-align:top;">:</td><td><div></div></td></tr></table></div></td></tr></table></div></td></tr><tr><td style="font-weight:bold;vertical-align:top;">delimiters</td><td style="vertical-align:top;">:</td><td><div><table><tr><td><div>{{</div></td></tr><tr><td><div>}}</div></td></tr></table></div></td></tr><tr><td style="font-weight:bold;vertical-align:top;">files</td><td style="vertical-align:top;">:</td><td><div><table></table></div></td></tr><tr><td style="font-weight:bold;vertical-align:top;">flash</td><td style="vertical-align:top;">:</td><td><div>Success!</div></td></tr><tr><td style="font-weight:bold;vertical-align:top;">form_label_separator</td><td style="vertical-align:top;">:</td><td><div></div></td></tr><tr><td style="font-weight:bold;vertical-align:top;">formstyle</td><td style="vertical-align:top;">:</td><td><div>bootstrap3_inline</div></td></tr><tr><td style="font-weight:bold;vertical-align:top;">generic_patterns</td><td style="vertical-align:top;">:</td><td><div><table></table></div></td></tr><tr><td style="font-weight:bold;vertical-align:top;">google_analytics_id</td><td style="vertical-align:top;">:</td><td><div>None</div></td></tr><tr><td style="font-weight:bold;vertical-align:top;">headers</td><td style="vertical-align:top;">:</td><td><div><table><tr><td style="font-weight:bold;vertical-align:top;">X-Powered-By</td><td style="vertical-align:top;">:</td><td><div>web2py</div></td></tr></table></div></td></tr><tr><td style="font-weight:bold;vertical-align:top;">logo</td><td style="vertical-align:top;">:</td><td><div><a><img href="/naturardb/default/index" src="/naturardb/static/images/icon.png" /></a></div></td></tr><tr><td style="font-weight:bold;vertical-align:top;">menu</td><td style="vertical-align:top;">:</td><td><div><table><tr><td><div><table><tr><td><div>Home</div></td></tr><tr><td><div>False</div></td></tr><tr><td><div>/naturardb/default/index</div></td></tr><tr><td><div><table></table></div></td></tr></table></div></td></tr><tr><td><div><table><tr><td><div>Research Groups</div></td></tr><tr><td><div>False</div></td></tr><tr><td><div>/naturardb/groups/list</div></td></tr><tr><td><div><table></table></div></td></tr></table></div></td></tr><tr><td><div><table><tr><td><div>Compounds</div></td></tr><tr><td><div>False</div></td></tr><tr><td><div>/naturardb/compuestos/buscar</div></td></tr><tr><td><div><table></table></div></td></tr></table></div></td></tr><tr><td><div><table><tr><td><div>+Info</div></td></tr><tr><td><div>False</div></td></tr><tr><td><div>None</div></td></tr><tr><td><div><table><tr><td><div><table><tr><td><div>Changelog</div></td></tr><tr><td><div>False</div></td></tr><tr><td><div>/naturardb/info/changelog</div></td></tr><tr><td><div>[]</div></td></tr></table></div></td></tr><tr><td><div><table><tr><td><div>ToDo list</div></td></tr><tr><td><div>False</div></td></tr><tr><td><div>/naturardb/info/todo</div></td></tr><tr><td><div>[]</div></td></tr></table></div></td></tr></table></div></td></tr></table></div></td></tr></table></div></td></tr><tr><td style="font-weight:bold;vertical-align:top;">meta</td><td style="vertical-align:top;">:</td><td><div><table><tr><td style="font-weight:bold;vertical-align:top;">author</td><td style="vertical-align:top;">:</td><td><div>Laboratorio de Qu\xc3\xadmica Te\xc3\xb3rica - LQT - lavecchia.at.gmail.com</div></td></tr><tr><td style="font-weight:bold;vertical-align:top;">description</td><td style="vertical-align:top;">:</td><td><div>NaturAr: base de datos de compuestos naturales de la Argentina</div></td></tr><tr><td style="font-weight:bold;vertical-align:top;">generator</td><td style="vertical-align:top;">:</td><td><div>NaturAr</div></td></tr><tr><td style="font-weight:bold;vertical-align:top;">keywords</td><td style="vertical-align:top;">:</td><td><div>compuestos naturales, base de datos, estructura molecular, mol\xc3\xa9culas</div></td></tr></table></div></td></tr><tr><td style="font-weight:bold;vertical-align:top;">models_to_run</td><td style="vertical-align:top;">:</td><td><div><table><tr><td><div>^\\w+\\.py$</div></td></tr><tr><td><div>^submission/\\w+\\.py$</div></td></tr><tr><td><div>^submission/submit_compound/\\w+\\.py$</div></td></tr></table></div></td></tr><tr><td style="font-weight:bold;vertical-align:top;">postprocessing</td><td style="vertical-align:top;">:</td><td><div><table></table></div></td></tr><tr><td style="font-weight:bold;vertical-align:top;">session_client</td><td style="vertical-align:top;">:</td><td><div>190.191.164.16</div></td></tr><tr><td style="font-weight:bold;vertical-align:top;">session_cookie_compression_level</td><td style="vertical-align:top;">:</td><td><div>None</div></td></tr><tr><td style="font-weight:bold;vertical-align:top;">session_cookie_expires</td><td style="vertical-align:top;">:</td><td><div>None</div></td></tr><tr><td style="font-weight:bold;vertical-align:top;">session_data_name</td><td style="vertical-align:top;">:</td><td><div>session_data_naturardb</div></td></tr><tr><td style="font-weight:bold;vertical-align:top;">session_file</td><td style="vertical-align:top;">:</td><td><div>&lt;open file &#x27;/home/mjl/Dropbox/FITOMEDICINA/web2py/applications/naturardb/sessions/163/13d/190.191.164.16-a1a52a1e-1c29-440d-94ae-ecd2a1a0f0f9&#x27;, mode &#x27;rb+&#x27; at 0x2b88528cca50&gt;</div></td></tr><tr><td style="font-weight:bold;vertical-align:top;">session_filename</td><td style="vertical-align:top;">:</td><td><div>/home/mjl/Dropbox/FITOMEDICINA/web2py/applications/naturardb/sessions/190.191.164.16-a1a52a1e-1c29-440d-94ae-ecd2a1a0f0f9</div></td></tr><tr><td style="font-weight:bold;vertical-align:top;">session_hash</td><td style="vertical-align:top;">:</td><td><div>2e255101c68dbb533b3a1d334fb7a668</div></td></tr><tr><td style="font-weight:bold;vertical-align:top;">session_id</td><td style="vertical-align:top;">:</td><td><div>190.191.164.16-a1a52a1e-1c29-440d-94ae-ecd2a1a0f0f9</div></td></tr><tr><td style="font-weight:bold;vertical-align:top;">session_id_name</td><td style="vertical-align:top;">:</td><td><div>session_id_naturardb</div></td></tr><tr><td style="font-weight:bold;vertical-align:top;">session_locked</td><td style="vertical-align:top;">:</td><td><div>True</div></td></tr><tr><td style="font-weight:bold;vertical-align:top;">session_masterapp</td><td style="vertical-align:top;">:</td><td><div>naturardb</div></td></tr><tr><td style="font-weight:bold;vertical-align:top;">session_new</td><td style="vertical-align:top;">:</td><td><div>False</div></td></tr><tr><td style="font-weight:bold;vertical-align:top;">session_storage_type</td><td style="vertical-align:top;">:</td><td><div>file</div></td></tr><tr><td style="font-weight:bold;vertical-align:top;">status</td><td style="vertical-align:top;">:</td><td><div>200</div></td></tr><tr><td style="font-weight:bold;vertical-align:top;">subtitle</td><td style="vertical-align:top;">:</td><td><div></div></td></tr><tr><td style="font-weight:bold;vertical-align:top;">title</td><td style="vertical-align:top;">:</td><td><div>Naturardb</div></td></tr><tr><td style="font-weight:bold;vertical-align:top;">view</td><td style="vertical-align:top;">:</td><td><div>submission/submit_compound.html</div></td></tr></table></div>'
tRp190
sS'locals'
p191
(dp192
S'url'
p193
S"'http://api.crossref.org/works/10.1021/np400559p'"
p194
sS'doc'
p195
S"{'journal': u'Journal of Natural Products'}"
p196
sS'doi'
p197
S"'10.1021/np400559p'"
p198
sS'data'
p199
S"{u'message': {u'DOI': u'10.1021/np400559p', u'ISSN': [u'0163-3864', u'1520-6025'], u'URL': u'http://dx.doi.org/10.1021/np400559p', u'alternative-id': [u'10.1021/np400559p'], u'author': [{u'affiliation': [], u'family': u'Nicotra', u'given': u'Viviana E.'}, {u'affiliation': [], u'family': u'Basso', u'given': u'Ana V.'}, {u'affiliation': [], u'family': u'Ramacciotti', u'given': u'Natalia S.'}, {u'affiliation': [], u'family': u'Misico', u'given': u'Rosana I.'}], u'container-title': [u'Journal of Natural Products'], u'content-domain': {u'crossmark-restriction': False, u'domain': []}, u'created': {u'date-parts': [[2013, 12, 4]], u'date-time': u'2013-12-04T15:35:16Z', u'timestamp': 1386171316000}, u'deposited': {u'date-parts': [[2016, 9, 1]], u'date-time': u'2016-09-01T18:20:28Z', u'timestamp': 1472754028000}, u'indexed': {u'date-parts': [[2017, 5, 13]], u'date-time': u'2017-05-13T10:12:31Z', u'timestamp': 1494670351836}, ...}, u'message-type': u'work', u'message-version': u'1.0.0', u'status': u'ok'}"
p200
sg189
S'<addinfourl at 47864488620616 whose fp = <socket._fileobject object>>'
p201
sssS'traceback'
p202
S'Traceback (most recent call last):\n  File "/home/mjl/Dropbox/FITOMEDICINA/web2py/gluon/restricted.py", line 227, in restricted\n    exec ccode in environment\n  File "/home/mjl/Dropbox/FITOMEDICINA/web2py/applications/naturardb/controllers/submission.py", line 230, in <module>\n  File "/home/mjl/Dropbox/FITOMEDICINA/web2py/gluon/globals.py", line 417, in <lambda>\n    self._caller = lambda f: f()\n  File "/home/mjl/Dropbox/FITOMEDICINA/web2py/applications/naturardb/controllers/submission.py", line 201, in submit_compound\n    doc = input2doc(reference)\n  File "/home/mjl/Dropbox/FITOMEDICINA/web2py/applications/naturardb/models/doc.py", line 76, in input2doc\n    return doi2doc(referencia)\n  File "/home/mjl/Dropbox/FITOMEDICINA/web2py/applications/naturardb/models/doc.py", line 15, in doi2doc\n    doc[\'year\']=datetime.strptime(data[\'message\'][\'deposited\'][\'date-parts\'][0][0], \'%Y\')\nTypeError: strptime() argument 1 must be string, not int\n'
p203
s.